 Fourmis_simul

 Timestamp is 3fa6e954 (Tue Nov 04 00:48:36 2003)

 Preferred load address is 00400000

 Start         Length     Name                   Class
 0001:00000000 000354aeH .text                   CODE
 0001:000354b0 0000252cH .text$x                 CODE
 0002:00000000 000003e4H .idata$5                DATA
 0002:000003e8 00001944H .rdata                  DATA
 0002:00001d30 00000044H .rdata$r                DATA
 0002:00001d74 000026ecH .xdata$x                DATA
 0002:00004460 000000b4H .idata$2                DATA
 0002:00004514 00000014H .idata$3                DATA
 0002:00004528 000003e4H .idata$4                DATA
 0002:0000490c 00001c0aH .idata$6                DATA
 0002:00006516 00000000H .edata                  DATA
 0003:00000000 00000004H .CRT$XCA                DATA
 0003:00000004 000000ccH .CRT$XCU                DATA
 0003:000000d0 00000004H .CRT$XCZ                DATA
 0003:000000d4 00000004H .CRT$XIA                DATA
 0003:000000d8 00000004H .CRT$XIZ                DATA
 0003:000000e0 000001f2H .data                   DATA
 0003:000002d8 00000540H .bss                    DATA
 0004:00000000 00000130H .rsrc$01                DATA
 0004:00000130 00001ba0H .rsrc$02                DATA

  Address         Publics by Value              Rva+Base     Lib:Object

 0001:00000200       ??0CLoad3DS@@QAE@XZ        00401200 f   3dsloader.obj
 0001:000002c0       ??0tLightMaterial@@QAE@XZ  004012c0 f i 3dsloader.obj
 0001:000002f0       ??0t3DModel@@QAE@XZ        004012f0 f i 3dsloader.obj
 0001:000003c0       ??1t3DModel@@QAE@XZ        004013c0 f i 3dsloader.obj
 0001:00000440       ??0CLoad3DS@@QAE@ABV0@@Z   00401440 f   3dsloader.obj
 0001:00000500       ?Import3DS@CLoad3DS@@QAE_NPAD@Z 00401500 f   3dsloader.obj
 0001:00000670       ??6_STL@@YAAAV?$basic_ostream@DV?$char_traits@D@_STL@@@0@AAV10@PBD@Z 00401670 f i 3dsloader.obj
 0001:000006c0       ?CleanUp@CLoad3DS@@AAEXXZ  004016c0 f   3dsloader.obj
 0001:00000740       ?ProcessNextChunk@CLoad3DS@@AAEXPAUt3DModel@@PAUtChunk@@@Z 00401740 f   3dsloader.obj
 0001:00000ba0       ?ProcessNextObjectChunk@CLoad3DS@@AAEXPAUt3DModel@@PAUt3DObject@@PAUtChunk@@@Z 00401ba0 f   3dsloader.obj
 0001:00000e00       ?ProcessNextMaterialChunk@CLoad3DS@@AAEXPAUt3DModel@@PAUtChunk@@@Z 00401e00 f   3dsloader.obj
 0001:000010c0       ?ReadChunk@CLoad3DS@@AAEXPAUtChunk@@@Z 004020c0 f   3dsloader.obj
 0001:00001150       ?GetString@CLoad3DS@@AAEHPAD@Z 00402150 f   3dsloader.obj
 0001:00001200       ?ReadColorChunk@CLoad3DS@@AAEXPAUtMaterialInfo@@PAUtChunk@@@Z 00402200 f   3dsloader.obj
 0001:000012c0       ?ReadVertexIndices@CLoad3DS@@AAEXPAUt3DObject@@PAUtChunk@@@Z 004022c0 f   3dsloader.obj
 0001:00001400       ?ReadUVCoordinates@CLoad3DS@@AAEXPAUt3DObject@@PAUtChunk@@@Z 00402400 f   3dsloader.obj
 0001:000014d0       ?ReadVertices@CLoad3DS@@AAEXPAUt3DObject@@PAUtChunk@@@Z 004024d0 f   3dsloader.obj
 0001:00001620       ?ReadObjectMaterial@CLoad3DS@@AAEXPAUt3DModel@@PAUt3DObject@@PAUtChunk@@@Z 00402620 f   3dsloader.obj
 0001:00001780       ?Vector@@YA?AUC3dsLoaderVector3@@U1@0@Z 00402780 f   3dsloader.obj
 0001:000017e0       ?AddVector@@YA?AUC3dsLoaderVector3@@U1@0@Z 004027e0 f   3dsloader.obj
 0001:00001840       ?DivideVectorByScaler@@YA?AUC3dsLoaderVector3@@U1@M@Z 00402840 f   3dsloader.obj
 0001:000018a0       ?Cross@@YA?AUC3dsLoaderVector3@@U1@0@Z 004028a0 f   3dsloader.obj
 0001:00001910       ?Normalize@@YA?AUC3dsLoaderVector3@@U1@@Z 00402910 f   3dsloader.obj
 0001:000019a0       ?ComputeNormals@CLoad3DS@@AAEXPAUt3DModel@@@Z 004029a0 f   3dsloader.obj
 0001:00001fb0       ?AssignMaterial@CLoad3DS@@QAEXAAUtLightMaterial@@@Z 00402fb0 f   3dsloader.obj
 0001:00002000       ?Render@CLoad3DS@@QAEXXZ   00403000 f   3dsloader.obj
 0001:00002400       ?size@?$vector@UtMaterialInfo@@V?$allocator@UtMaterialInfo@@@_STL@@@_STL@@QBEIXZ 00403400 f i 3dsloader.obj
 0001:00002440       ??A?$vector@UtMaterialInfo@@V?$allocator@UtMaterialInfo@@@_STL@@@_STL@@QAEAAUtMaterialInfo@@I@Z 00403440 f i 3dsloader.obj
 0001:00002490       ??0?$vector@UtMaterialInfo@@V?$allocator@UtMaterialInfo@@@_STL@@@_STL@@QAE@ABV?$allocator@UtMaterialInfo@@@1@@Z 00403490 f i 3dsloader.obj
 0001:000024d0       ??1?$vector@UtMaterialInfo@@V?$allocator@UtMaterialInfo@@@_STL@@@_STL@@QAE@XZ 004034d0 f i 3dsloader.obj
 0001:00002550       ?push_back@?$vector@UtMaterialInfo@@V?$allocator@UtMaterialInfo@@@_STL@@@_STL@@QAEXABUtMaterialInfo@@@Z 00403550 f i 3dsloader.obj
 0001:000025d0       ??0?$allocator@UtMaterialInfo@@@_STL@@QAE@XZ 004035d0 f i 3dsloader.obj
 0001:00002600       ??1?$allocator@UtMaterialInfo@@@_STL@@QAE@XZ 00403600 f i 3dsloader.obj
 0001:00002630       ?size@?$vector@Ut3DObject@@V?$allocator@Ut3DObject@@@_STL@@@_STL@@QBEIXZ 00403630 f i 3dsloader.obj
 0001:00002670       ??A?$vector@Ut3DObject@@V?$allocator@Ut3DObject@@@_STL@@@_STL@@QAEAAUt3DObject@@I@Z 00403670 f i 3dsloader.obj
 0001:000026c0       ??0?$vector@Ut3DObject@@V?$allocator@Ut3DObject@@@_STL@@@_STL@@QAE@ABV?$allocator@Ut3DObject@@@1@@Z 004036c0 f i 3dsloader.obj
 0001:00002700       ??1?$vector@Ut3DObject@@V?$allocator@Ut3DObject@@@_STL@@@_STL@@QAE@XZ 00403700 f i 3dsloader.obj
 0001:00002780       ?push_back@?$vector@Ut3DObject@@V?$allocator@Ut3DObject@@@_STL@@@_STL@@QAEXABUt3DObject@@@Z 00403780 f i 3dsloader.obj
 0001:00002800       ??0?$allocator@Ut3DObject@@@_STL@@QAE@XZ 00403800 f i 3dsloader.obj
 0001:00002830       ??1?$allocator@Ut3DObject@@@_STL@@QAE@XZ 00403830 f i 3dsloader.obj
 0001:00002860       ?_M_insert_overflow@?$vector@UtMaterialInfo@@V?$allocator@UtMaterialInfo@@@_STL@@@_STL@@IAEXPAUtMaterialInfo@@ABU3@ABU__false_type@2@I_N@Z 00403860 f i 3dsloader.obj
 0001:000029f0       ?begin@?$vector@UtMaterialInfo@@V?$allocator@UtMaterialInfo@@@_STL@@@_STL@@QAEPAUtMaterialInfo@@XZ 004039f0 f i 3dsloader.obj
 0001:00002a20       ??0?$_Vector_base@UtMaterialInfo@@V?$allocator@UtMaterialInfo@@@_STL@@@_STL@@QAE@ABV?$allocator@UtMaterialInfo@@@1@@Z 00403a20 f i 3dsloader.obj
 0001:00002a80       ??1?$_Vector_base@UtMaterialInfo@@V?$allocator@UtMaterialInfo@@@_STL@@@_STL@@QAE@XZ 00403a80 f i 3dsloader.obj
 0001:00002b20       ?_M_insert_overflow@?$vector@Ut3DObject@@V?$allocator@Ut3DObject@@@_STL@@@_STL@@IAEXPAUt3DObject@@ABU3@ABU__false_type@2@I_N@Z 00403b20 f i 3dsloader.obj
 0001:00002cb0       ?begin@?$vector@Ut3DObject@@V?$allocator@Ut3DObject@@@_STL@@@_STL@@QAEPAUt3DObject@@XZ 00403cb0 f i 3dsloader.obj
 0001:00002ce0       ??0?$_Vector_base@Ut3DObject@@V?$allocator@Ut3DObject@@@_STL@@@_STL@@QAE@ABV?$allocator@Ut3DObject@@@1@@Z 00403ce0 f i 3dsloader.obj
 0001:00002d40       ??1?$_Vector_base@Ut3DObject@@V?$allocator@Ut3DObject@@@_STL@@@_STL@@QAE@XZ 00403d40 f i 3dsloader.obj
 0001:00002de0       ??1?$_STLP_alloc_proxy@PAUtMaterialInfo@@U1@V?$allocator@UtMaterialInfo@@@_STL@@@_STL@@QAE@XZ 00403de0 f i 3dsloader.obj
 0001:00002e20       ??1?$_STLP_alloc_proxy@PAUt3DObject@@U1@V?$allocator@Ut3DObject@@@_STL@@@_STL@@QAE@XZ 00403e20 f i 3dsloader.obj
 0001:00002e60       ?_M_clear@?$vector@UtMaterialInfo@@V?$allocator@UtMaterialInfo@@@_STL@@@_STL@@IAEXXZ 00403e60 f i 3dsloader.obj
 0001:00002ed0       ?_M_set@?$vector@UtMaterialInfo@@V?$allocator@UtMaterialInfo@@@_STL@@@_STL@@IAEXPAUtMaterialInfo@@00@Z 00403ed0 f i 3dsloader.obj
 0001:00002f10       ??0?$_STLP_alloc_proxy@PAUtMaterialInfo@@U1@V?$allocator@UtMaterialInfo@@@_STL@@@_STL@@QAE@ABV?$allocator@UtMaterialInfo@@@1@PAUtMaterialInfo@@@Z 00403f10 f i 3dsloader.obj
 0001:00002f60       ?allocate@?$_STLP_alloc_proxy@PAUtMaterialInfo@@U1@V?$allocator@UtMaterialInfo@@@_STL@@@_STL@@QAEPAUtMaterialInfo@@I@Z 00403f60 f i 3dsloader.obj
 0001:00002fb0       ?deallocate@?$_STLP_alloc_proxy@PAUtMaterialInfo@@U1@V?$allocator@UtMaterialInfo@@@_STL@@@_STL@@QAEXPAUtMaterialInfo@@I@Z 00403fb0 f i 3dsloader.obj
 0001:00003000       ?_M_clear@?$vector@Ut3DObject@@V?$allocator@Ut3DObject@@@_STL@@@_STL@@IAEXXZ 00404000 f i 3dsloader.obj
 0001:00003070       ?_M_set@?$vector@Ut3DObject@@V?$allocator@Ut3DObject@@@_STL@@@_STL@@IAEXPAUt3DObject@@00@Z 00404070 f i 3dsloader.obj
 0001:000030b0       ??0?$_STLP_alloc_proxy@PAUt3DObject@@U1@V?$allocator@Ut3DObject@@@_STL@@@_STL@@QAE@ABV?$allocator@Ut3DObject@@@1@PAUt3DObject@@@Z 004040b0 f i 3dsloader.obj
 0001:00003100       ?allocate@?$_STLP_alloc_proxy@PAUt3DObject@@U1@V?$allocator@Ut3DObject@@@_STL@@@_STL@@QAEPAUt3DObject@@I@Z 00404100 f i 3dsloader.obj
 0001:00003150       ?deallocate@?$_STLP_alloc_proxy@PAUt3DObject@@U1@V?$allocator@Ut3DObject@@@_STL@@@_STL@@QAEXPAUt3DObject@@I@Z 00404150 f i 3dsloader.obj
 0001:000031a0       ??0?$allocator@UtMaterialInfo@@@_STL@@QAE@ABV01@@Z 004041a0 f i 3dsloader.obj
 0001:000031d0       ?allocate@?$allocator@UtMaterialInfo@@@_STL@@QBEPAUtMaterialInfo@@IPBX@Z 004041d0 f i 3dsloader.obj
 0001:00003240       ?deallocate@?$allocator@UtMaterialInfo@@@_STL@@QBEXPAUtMaterialInfo@@I@Z 00404240 f i 3dsloader.obj
 0001:000032a0       ??0?$allocator@Ut3DObject@@@_STL@@QAE@ABV01@@Z 004042a0 f i 3dsloader.obj
 0001:000032d0       ?allocate@?$allocator@Ut3DObject@@@_STL@@QBEPAUt3DObject@@IPBX@Z 004042d0 f i 3dsloader.obj
 0001:00003340       ?deallocate@?$allocator@Ut3DObject@@@_STL@@QBEXPAUt3DObject@@I@Z 00404340 f i 3dsloader.obj
 0001:000033a0       ?max@_STL@@YAABIABI0@Z     004043a0 f i 3dsloader.obj
 0001:000033f0       ?endl@_STL@@YAAAV?$basic_ostream@DV?$char_traits@D@_STL@@@1@AAV21@@Z 004043f0 f i 3dsloader.obj
 0001:00003460       ?_Destroy@_STL@@YAXPAUtMaterialInfo@@0@Z 00404460 f i 3dsloader.obj
 0001:000034b0       ?_Construct@_STL@@YAXPAUtMaterialInfo@@ABU2@@Z 004044b0 f i 3dsloader.obj
 0001:00003510       ??2@YAPAXIPAX@Z            00404510 f i 3dsloader.obj
 0001:00003540       ?_Destroy@_STL@@YAXPAUt3DObject@@0@Z 00404540 f i 3dsloader.obj
 0001:00003590       ?_Construct@_STL@@YAXPAUt3DObject@@ABU2@@Z 00404590 f i 3dsloader.obj
 0001:000035f0       ?__uninitialized_copy@_STL@@YAPAUtMaterialInfo@@PAU2@00ABU__false_type@1@@Z 004045f0 f i 3dsloader.obj
 0001:000036b0       ?__uninitialized_fill_n@_STL@@YAPAUtMaterialInfo@@PAU2@IABU2@ABU__false_type@1@@Z 004046b0 f i 3dsloader.obj
 0001:00003760       ?__uninitialized_copy@_STL@@YAPAUt3DObject@@PAU2@00ABU__false_type@1@@Z 00404760 f i 3dsloader.obj
 0001:00003820       ?__uninitialized_fill_n@_STL@@YAPAUt3DObject@@PAU2@IABU2@ABU__false_type@1@@Z 00404820 f i 3dsloader.obj
 0001:000038d0       ?__stl_alloc_rebind@_STL@@YAAAV?$allocator@UtMaterialInfo@@@1@AAV21@PBUtMaterialInfo@@@Z 004048d0 f i 3dsloader.obj
 0001:00003900       ?__stl_alloc_rebind@_STL@@YAAAV?$allocator@Ut3DObject@@@1@AAV21@PBUt3DObject@@@Z 00404900 f i 3dsloader.obj
 0001:00003930       ?value_type@_STL@@YAPAUtMaterialInfo@@PBU2@@Z 00404930 f i 3dsloader.obj
 0001:00003960       ?__destroy@_STL@@YAXPAUtMaterialInfo@@00@Z 00404960 f i 3dsloader.obj
 0001:000039a0       ?value_type@_STL@@YAPAUt3DObject@@PBU2@@Z 004049a0 f i 3dsloader.obj
 0001:000039d0       ?__destroy@_STL@@YAXPAUt3DObject@@00@Z 004049d0 f i 3dsloader.obj
 0001:00003a10       ?__destroy_aux@_STL@@YAXPAUtMaterialInfo@@0ABU__false_type@1@@Z 00404a10 f i 3dsloader.obj
 0001:00003a60       ?__destroy_aux@_STL@@YAXPAUt3DObject@@0ABU__false_type@1@@Z 00404a60 f i 3dsloader.obj
 0001:00003ab0       ?_Destroy@_STL@@YAXPAUtMaterialInfo@@@Z 00404ab0 f i 3dsloader.obj
 0001:00003ad0       ?_Destroy@_STL@@YAXPAUt3DObject@@@Z 00404ad0 f i 3dsloader.obj
 0001:00003cf0       ??0C3DObjAnim@@QAE@XZ      00404cf0 f   C3DObject.obj
 0001:00003d70       ??1C3DObjAnim@@QAE@XZ      00404d70 f   C3DObject.obj
 0001:00003e30       ?Reset@C3DObjAnim@@QAE_NXZ 00404e30 f   C3DObject.obj
 0001:00003e60       ??4C3DObjAnim@@QAEAAV0@ABV0@@Z 00404e60 f   C3DObject.obj
 0001:00004000       ??0CPosition@@QAE@XZ       00405000 f i C3DObject.obj
 0001:00004070       ??4CPosition@@QAEAAU0@U0@@Z 00405070 f i C3DObject.obj
 0001:000040d0       ??0C3DObjElement@@QAE@XZ   004050d0 f   C3DObject.obj
 0001:000042a0       ??0CBoundingBox@@QAE@XZ    004052a0 f i C3DObject.obj
 0001:000042d0       ??0CSDLChrono@@QAE@XZ      004052d0 f i C3DObject.obj
 0001:00004320       ??1C3DObjElement@@QAE@XZ   00405320 f   C3DObject.obj
 0001:00004520       ??1CSDLChrono@@QAE@XZ      00405520 f i C3DObject.obj
 0001:00004550       ?Stop@CSDLChrono@@QAEXXZ   00405550 f i C3DObject.obj
 0001:00004580       ??_GC3DObjElement@@QAEPAXI@Z 00405580 f i C3DObject.obj
 0001:000045e0       ??_GC3DObjAnim@@QAEPAXI@Z  004055e0 f i C3DObject.obj
 0001:00004640       ??_GCCastParticleSystem@@QAEPAXI@Z 00405640 f i C3DObject.obj
 0001:000046a0       ??1CCastParticleSystem@@QAE@XZ 004056a0 f i C3DObject.obj
 0001:000046e0       ?Reset@C3DObjElement@@QAE_NXZ 004056e0 f   C3DObject.obj
 0001:00004830       ??4C3DObjElement@@QAEAAV0@ABV0@@Z 00405830 f   C3DObject.obj
 0001:00004c00       ??4CBoundingBox@@QAEAAV0@ABV0@@Z 00405c00 f i C3DObject.obj
 0001:00004c60       ?SelectDefaultAnimation@C3DObjElement@@QAE_NI@Z 00405c60 f   C3DObject.obj
 0001:00004d30       ?ChangeAnimation@C3DObjElement@@QAE_NII@Z 00405d30 f   C3DObject.obj
 0001:00004eb0       ?ChangeNextAnimation@C3DObjElement@@QAE_NII@Z 00405eb0 f   C3DObject.obj
 0001:00005010       ?Load@C3DObjElement@@QAE_NPAD0_NPAUt3DTextures@@PAUt3DObjects@@PAUtLightMaterial@@@Z 00406010 f   C3DObject.obj
 0001:00005820       ?Render@C3DObjElement@@QAE_N_N@Z 00406820 f   C3DObject.obj
 0001:00005b40       ?Getdt@CSDLChrono@@QBE?BIXZ 00406b40 f i C3DObject.obj
 0001:00005b70       ?Update@CSDLChrono@@QAEXXZ 00406b70 f i C3DObject.obj
 0001:00005be0       ?IsEnabled@CParticleSystem@@QBE?B_NXZ 00406be0 f i C3DObject.obj
 0001:00005c10       ?RenderBoundingBox@C3DObjElement@@QAE_N_N@Z 00406c10 f   C3DObject.obj
 0001:00006280       ?Update@C3DObjElement@@QAE_N_N@Z 00407280 f   C3DObject.obj
 0001:000067f0       ??DCPosition@@QAE?AU0@M@Z  004077f0 f i C3DObject.obj
 0001:00006880       ??0CPosition@@QAE@MMMMMM@Z 00407880 f i C3DObject.obj
 0001:000068e0       ??HCPosition@@QAE?AU0@U0@@Z 004078e0 f i C3DObject.obj
 0001:00006970       ?ChangeFrameRateRatio@C3DObjElement@@QAE_NM@Z 00407970 f   C3DObject.obj
 0001:00006b30       ?RandomAnimationStart@C3DObjElement@@QAE_NI_NH@Z 00407b30 f   C3DObject.obj
 0001:00006d60       ?RebuilDisplayLists@C3DObjElement@@QAE_NXZ 00407d60 f   C3DObject.obj
 0001:00006e10       ?TakeObject@C3DObjElement@@QAE_NPAV1@I@Z 00407e10 f   C3DObject.obj
 0001:00006e70       ?TakeObject_priv@C3DObjElement@@AAEIPAV1@I@Z 00407e70 f   C3DObject.obj
 0001:00006fb0       ?DropObject@C3DObjElement@@QAE_NI@Z 00407fb0 f   C3DObject.obj
 0001:00007020       ?DropObject_priv@C3DObjElement@@AAEII@Z 00408020 f   C3DObject.obj
 0001:00007160       ?InitParticleSystem@C3DObjElement@@QAE_NIIMMMMMMM_NIMMAAU?$TVector3@M@@1U2@P6AXPAVCParticle@@MI@ZP6AX3M@Z@Z 00408160 f   C3DObject.obj
 0001:000073e0       ??0CCastParticleSystem@@QAE@XZ 004083e0 f i C3DObject.obj
 0001:00007440       ??0CParticleSystem@@QAE@XZ 00408440 f i C3DObject.obj
 0001:00007510       ??0CParticle@@QAE@XZ       00408510 f i C3DObject.obj
 0001:00007600       ?Init@CParticleSystem@@UAEXI_NMMMMMM0IMMAAU?$TVector3@M@@111U2@P6AXPAVCParticle@@MI@ZP6AX3M@Z@Z 00408600 f i C3DObject.obj
 0001:00007810       ??4CParticle@@QAEAAV0@AAV0@@Z 00408810 f i C3DObject.obj
 0001:00007900       ?Init@CCastParticleSystem@@QAEXIMMMMMMM_NIMMAAU?$TVector3@M@@111U2@P6AXPAVCParticle@@MI@ZP6AX3M@Z@Z 00408900 f i C3DObject.obj
 0001:000079e0       ?StartParticleSystem@C3DObjElement@@QAEXXZ 004089e0 f   C3DObject.obj
 0001:00007a70       ?Start@CSDLChrono@@QAEXXZ  00408a70 f i C3DObject.obj
 0001:00007ad0       ?Enable@CParticleSystem@@QAEXXZ 00408ad0 f i C3DObject.obj
 0001:00007b00       ?StopParticleSystem@C3DObjElement@@QAEXXZ 00408b00 f   C3DObject.obj
 0001:00007ba0       ?Disable@CParticleSystem@@QAEXXZ 00408ba0 f i C3DObject.obj
 0001:00007bd0       ?Reset@CParticleSystem@@QAEXXZ 00408bd0 f i C3DObject.obj
 0001:00007c40       ?Disable@CParticle@@QAEXXZ 00408c40 f i C3DObject.obj
 0001:00007c70       ?DeleteParticleSystem@C3DObjElement@@QAEXXZ 00408c70 f   C3DObject.obj
 0001:00007d30       ?strrmcomments@C3DObjLoader@@SAXPAD@Z 00408d30 f   C3DObject.obj
 0001:00007db0       ?strtrim@C3DObjLoader@@SA_NPAD@Z 00408db0 f   C3DObject.obj
 0001:00007ec0       ?getValueInt@C3DObjLoader@@SA_NPADPAH@Z 00408ec0 f   C3DObject.obj
 0001:00007fb0       ?getValueFloatVectorsList@C3DObjLoader@@SA_NPADPAV?$basic_ifstream@DV?$char_traits@D@_STL@@@_STL@@PAHQAY02MH@Z 00408fb0 f   C3DObject.obj
 0001:00008310       ?getValueIntList@C3DObjLoader@@SA_NPADPAV?$basic_ifstream@DV?$char_traits@D@_STL@@@_STL@@PAHQAHH@Z 00409310 f   C3DObject.obj
 0001:00008620       ?getValueString@C3DObjLoader@@SA_NPAD0@Z 00409620 f   C3DObject.obj
 0001:000086e0       ?getUIDFromName@C3DObjLoader@@SAIPADPAUANIMATIONS_NAMEUID@@@Z 004096e0 f   C3DObject.obj
 0001:00008750       ?Load3d@C3DObjLoader@@SA_NV?$basic_string@DV?$char_traits@D@_STL@@V?$allocator@D@2@@_STL@@PAPAVC3DObjElement@@PAUANIMATIONS_NAMEUID@@2@Z 00409750 f   C3DObject.obj
 0001:0000bab0       ??4CPosition@@QAEAAU0@QAY02M@Z 0040cab0 f i C3DObject.obj
 0001:0000bb20       ?GetBoundingBox@C3DObjElement@@QAEAAVCBoundingBox@@XZ 0040cb20 f i C3DObject.obj
 0001:0000bb50       ??0objstruct@@QAE@XZ       0040cb50 f i C3DObject.obj
 0001:0000bb90       ??1?$stack@PAVC3DObjElement@@V?$deque@PAVC3DObjElement@@V?$allocator@PAVC3DObjElement@@@_STL@@@_STL@@@_STL@@QAE@XZ 0040cb90 f i C3DObject.obj
 0001:0000bbd0       ??_Gobjstruct@@QAEPAXI@Z   0040cbd0 f i C3DObject.obj
 0001:0000bc30       ??1objstruct@@QAE@XZ       0040cc30 f i C3DObject.obj
 0001:0000bc80       ??A?$vector@V?$basic_string@DV?$char_traits@D@_STL@@V?$allocator@D@2@@_STL@@V?$allocator@V?$basic_string@DV?$char_traits@D@_STL@@V?$allocator@D@2@@_STL@@@2@@_STL@@QAEAAV?$basic_string@DV?$char_traits@D@_STL@@V?$allocator@D@2@@1@I@Z 0040cc80 f i C3DObject.obj
 0001:0000bcc0       ?push_back@?$vector@V?$basic_string@DV?$char_traits@D@_STL@@V?$allocator@D@2@@_STL@@V?$allocator@V?$basic_string@DV?$char_traits@D@_STL@@V?$allocator@D@2@@_STL@@@2@@_STL@@QAEXABV?$basic_string@DV?$char_traits@D@_STL@@V?$allocator@D@2@@2@@Z 0040ccc0 f i C3DObject.obj
 0001:0000bd40       ??A?$vector@IV?$allocator@I@_STL@@@_STL@@QAEAAII@Z 0040cd40 f i C3DObject.obj
 0001:0000bd80       ?push_back@?$vector@IV?$allocator@I@_STL@@@_STL@@QAEXABI@Z 0040cd80 f i C3DObject.obj
 0001:0000be00       ??A?$vector@PAVCLoad3DS@@V?$allocator@PAVCLoad3DS@@@_STL@@@_STL@@QAEAAPAVCLoad3DS@@I@Z 0040ce00 f i C3DObject.obj
 0001:0000be40       ?push_back@?$vector@PAVCLoad3DS@@V?$allocator@PAVCLoad3DS@@@_STL@@@_STL@@QAEXABQAVCLoad3DS@@@Z 0040ce40 f i C3DObject.obj
 0001:0000bec0       ??0?$TColor4@M@@QAE@MMMM@Z 0040cec0 f i C3DObject.obj
 0001:0000bf10       ??0?$stack@PAVC3DObjElement@@V?$deque@PAVC3DObjElement@@V?$allocator@PAVC3DObjElement@@@_STL@@@_STL@@@_STL@@QAE@XZ 0040cf10 f i C3DObject.obj
 0001:0000bfa0       ?empty@?$stack@PAVC3DObjElement@@V?$deque@PAVC3DObjElement@@V?$allocator@PAVC3DObjElement@@@_STL@@@_STL@@@_STL@@QBE_NXZ 0040cfa0 f i C3DObject.obj
 0001:0000bfe0       ?top@?$stack@PAVC3DObjElement@@V?$deque@PAVC3DObjElement@@V?$allocator@PAVC3DObjElement@@@_STL@@@_STL@@@_STL@@QAEAAPAVC3DObjElement@@XZ 0040cfe0 f i C3DObject.obj
 0001:0000c020       ?push@?$stack@PAVC3DObjElement@@V?$deque@PAVC3DObjElement@@V?$allocator@PAVC3DObjElement@@@_STL@@@_STL@@@_STL@@QAEXABQAVC3DObjElement@@@Z 0040d020 f i C3DObject.obj
 0001:0000c060       ?pop@?$stack@PAVC3DObjElement@@V?$deque@PAVC3DObjElement@@V?$allocator@PAVC3DObjElement@@@_STL@@@_STL@@@_STL@@QAEXXZ 0040d060 f i C3DObject.obj
 0001:0000c0a0       ??1?$deque@PAVC3DObjElement@@V?$allocator@PAVC3DObjElement@@@_STL@@@_STL@@QAE@XZ 0040d0a0 f i C3DObject.obj
 0001:0000c130       ?_M_insert_overflow@?$vector@V?$basic_string@DV?$char_traits@D@_STL@@V?$allocator@D@2@@_STL@@V?$allocator@V?$basic_string@DV?$char_traits@D@_STL@@V?$allocator@D@2@@_STL@@@2@@_STL@@IAEXPAV?$basic_string@DV?$char_traits@D@_STL@@V?$allocator@D@2@@2@ABV32@ABU__false_type@2@I_N@Z 0040d130 f i C3DObject.obj
 0001:0000c2b0       ?begin@?$vector@V?$basic_string@DV?$char_traits@D@_STL@@V?$allocator@D@2@@_STL@@V?$allocator@V?$basic_string@DV?$char_traits@D@_STL@@V?$allocator@D@2@@_STL@@@2@@_STL@@QAEPAV?$basic_string@DV?$char_traits@D@_STL@@V?$allocator@D@2@@2@XZ 0040d2b0 f i C3DObject.obj
 0001:0000c2e0       ?_M_insert_overflow@?$vector@IV?$allocator@I@_STL@@@_STL@@IAEXPAIABIABU__true_type@2@I_N@Z 0040d2e0 f i C3DObject.obj
 0001:0000c3c0       ?__copy_trivial@_STL@@YAPAXPBX0PAX@Z 0040d3c0 f i C3DObject.obj
 0001:0000c430       ?begin@?$vector@IV?$allocator@I@_STL@@@_STL@@QAEPAIXZ 0040d430 f i C3DObject.obj
 0001:0000c460       ?_M_insert_overflow@?$vector@PAVCLoad3DS@@V?$allocator@PAVCLoad3DS@@@_STL@@@_STL@@IAEXPAPAVCLoad3DS@@ABQAV3@ABU__true_type@2@I_N@Z 0040d460 f i C3DObject.obj
 0001:0000c540       ?size@?$vector@PAVCLoad3DS@@V?$allocator@PAVCLoad3DS@@@_STL@@@_STL@@QBEIXZ 0040d540 f i C3DObject.obj
 0001:0000c580       ?begin@?$vector@PAVCLoad3DS@@V?$allocator@PAVCLoad3DS@@@_STL@@@_STL@@QAEPAPAVCLoad3DS@@XZ 0040d580 f i C3DObject.obj
 0001:0000c5b0       ?back@?$deque@PAVC3DObjElement@@V?$allocator@PAVC3DObjElement@@@_STL@@@_STL@@QAEAAPAVC3DObjElement@@XZ 0040d5b0 f i C3DObject.obj
 0001:0000c600       ?empty@?$deque@PAVC3DObjElement@@V?$allocator@PAVC3DObjElement@@@_STL@@@_STL@@QBE_NXZ 0040d600 f i C3DObject.obj
 0001:0000c650       ??0?$deque@PAVC3DObjElement@@V?$allocator@PAVC3DObjElement@@@_STL@@@_STL@@QAE@ABV?$allocator@PAVC3DObjElement@@@1@@Z 0040d650 f i C3DObject.obj
 0001:0000c6a0       ?push_back@?$deque@PAVC3DObjElement@@V?$allocator@PAVC3DObjElement@@@_STL@@@_STL@@QAEXABQAVC3DObjElement@@@Z 0040d6a0 f i C3DObject.obj
 0001:0000c720       ?pop_back@?$deque@PAVC3DObjElement@@V?$allocator@PAVC3DObjElement@@@_STL@@@_STL@@QAEXXZ 0040d720 f i C3DObject.obj
 0001:0000c790       ??0?$_Deque_iterator@PAVC3DObjElement@@U?$_Nonconst_traits@PAVC3DObjElement@@@_STL@@@_STL@@QAE@ABU01@@Z 0040d790 f i C3DObject.obj
 0001:0000c7e0       ??0?$allocator@PAVC3DObjElement@@@_STL@@QAE@XZ 0040d7e0 f i C3DObject.obj
 0001:0000c810       ??1?$allocator@PAVC3DObjElement@@@_STL@@QAE@XZ 0040d810 f i C3DObject.obj
 0001:0000c840       ?size@?$vector@V?$basic_string@DV?$char_traits@D@_STL@@V?$allocator@D@2@@_STL@@V?$allocator@V?$basic_string@DV?$char_traits@D@_STL@@V?$allocator@D@2@@_STL@@@2@@_STL@@QBEIXZ 0040d840 f i C3DObject.obj
 0001:0000c880       ?_M_clear@?$vector@V?$basic_string@DV?$char_traits@D@_STL@@V?$allocator@D@2@@_STL@@V?$allocator@V?$basic_string@DV?$char_traits@D@_STL@@V?$allocator@D@2@@_STL@@@2@@_STL@@IAEXXZ 0040d880 f i C3DObject.obj
 0001:0000c8f0       ?_M_set@?$vector@V?$basic_string@DV?$char_traits@D@_STL@@V?$allocator@D@2@@_STL@@V?$allocator@V?$basic_string@DV?$char_traits@D@_STL@@V?$allocator@D@2@@_STL@@@2@@_STL@@IAEXPAV?$basic_string@DV?$char_traits@D@_STL@@V?$allocator@D@2@@2@00@Z 0040d8f0 f i C3DObject.obj
 0001:0000c930       ?allocate@?$_STLP_alloc_proxy@PAV?$basic_string@DV?$char_traits@D@_STL@@V?$allocator@D@2@@_STL@@V12@V?$allocator@V?$basic_string@DV?$char_traits@D@_STL@@V?$allocator@D@2@@_STL@@@2@@_STL@@QAEPAV?$basic_string@DV?$char_traits@D@_STL@@V?$allocator@D@2@@2@I@Z 0040d930 f i C3DObject.obj
 0001:0000c980       ?deallocate@?$_STLP_alloc_proxy@PAV?$basic_string@DV?$char_traits@D@_STL@@V?$allocator@D@2@@_STL@@V12@V?$allocator@V?$basic_string@DV?$char_traits@D@_STL@@V?$allocator@D@2@@_STL@@@2@@_STL@@QAEXPAV?$basic_string@DV?$char_traits@D@_STL@@V?$allocator@D@2@@2@I@Z 0040d980 f i C3DObject.obj
 0001:0000c9d0       ?size@?$vector@IV?$allocator@I@_STL@@@_STL@@QBEIXZ 0040d9d0 f i C3DObject.obj
 0001:0000ca10       ?_M_clear@?$vector@IV?$allocator@I@_STL@@@_STL@@IAEXXZ 0040da10 f i C3DObject.obj
 0001:0000ca80       ?_M_set@?$vector@IV?$allocator@I@_STL@@@_STL@@IAEXPAI00@Z 0040da80 f i C3DObject.obj
 0001:0000cac0       ?allocate@?$_STLP_alloc_proxy@PAIIV?$allocator@I@_STL@@@_STL@@QAEPAII@Z 0040dac0 f i C3DObject.obj
 0001:0000cb10       ?deallocate@?$_STLP_alloc_proxy@PAIIV?$allocator@I@_STL@@@_STL@@QAEXPAII@Z 0040db10 f i C3DObject.obj
 0001:0000cb60       ?allocate@?$allocator@I@_STL@@QBEPAIIPBX@Z 0040db60 f i C3DObject.obj
 0001:0000cbc0       ?deallocate@?$allocator@I@_STL@@QBEXPAII@Z 0040dbc0 f i C3DObject.obj
 0001:0000cc20       ?_M_clear@?$vector@PAVCLoad3DS@@V?$allocator@PAVCLoad3DS@@@_STL@@@_STL@@IAEXXZ 0040dc20 f i C3DObject.obj
 0001:0000cc90       ?_M_set@?$vector@PAVCLoad3DS@@V?$allocator@PAVCLoad3DS@@@_STL@@@_STL@@IAEXPAPAVCLoad3DS@@00@Z 0040dc90 f i C3DObject.obj
 0001:0000ccd0       ?allocate@?$_STLP_alloc_proxy@PAPAVCLoad3DS@@PAV1@V?$allocator@PAVCLoad3DS@@@_STL@@@_STL@@QAEPAPAVCLoad3DS@@I@Z 0040dcd0 f i C3DObject.obj
 0001:0000cd20       ?deallocate@?$_STLP_alloc_proxy@PAPAVCLoad3DS@@PAV1@V?$allocator@PAVCLoad3DS@@@_STL@@@_STL@@QAEXPAPAVCLoad3DS@@I@Z 0040dd20 f i C3DObject.obj
 0001:0000cd70       ??0?$_Deque_base@PAVC3DObjElement@@V?$allocator@PAVC3DObjElement@@@_STL@@@_STL@@QAE@ABV?$allocator@PAVC3DObjElement@@@1@I@Z 0040dd70 f i C3DObject.obj
 0001:0000ce20       ??D?$_Deque_iterator@PAVC3DObjElement@@U?$_Nonconst_traits@PAVC3DObjElement@@@_STL@@@_STL@@QBEAAPAVC3DObjElement@@XZ 0040de20 f i C3DObject.obj
 0001:0000ce50       ??F?$_Deque_iterator@PAVC3DObjElement@@U?$_Nonconst_traits@PAVC3DObjElement@@@_STL@@@_STL@@QAEAAU01@XZ 0040de50 f i C3DObject.obj
 0001:0000ce90       ??1?$_STLP_alloc_proxy@PAPAPAVC3DObjElement@@PAPAV1@V?$allocator@PAVC3DObjElement@@@_STL@@@_STL@@QAE@XZ 0040de90 f i C3DObject.obj
 0001:0000ced0       ??1?$_STLP_alloc_proxy@IPAVC3DObjElement@@V?$allocator@PAVC3DObjElement@@@_STL@@@_STL@@QAE@XZ 0040ded0 f i C3DObject.obj
 0001:0000cf10       ?allocate@?$allocator@V?$basic_string@DV?$char_traits@D@_STL@@V?$allocator@D@2@@_STL@@@_STL@@QBEPAV?$basic_string@DV?$char_traits@D@_STL@@V?$allocator@D@2@@2@IPBX@Z 0040df10 f i C3DObject.obj
 0001:0000cf70       ?deallocate@?$allocator@V?$basic_string@DV?$char_traits@D@_STL@@V?$allocator@D@2@@_STL@@@_STL@@QBEXPAV?$basic_string@DV?$char_traits@D@_STL@@V?$allocator@D@2@@2@I@Z 0040df70 f i C3DObject.obj
 0001:0000cfd0       ?allocate@?$allocator@PAVCLoad3DS@@@_STL@@QBEPAPAVCLoad3DS@@IPBX@Z 0040dfd0 f i C3DObject.obj
 0001:0000d030       ?deallocate@?$allocator@PAVCLoad3DS@@@_STL@@QBEXPAPAVCLoad3DS@@I@Z 0040e030 f i C3DObject.obj
 0001:0000d090       ??0?$_Deque_iterator@PAVC3DObjElement@@U?$_Nonconst_traits@PAVC3DObjElement@@@_STL@@@_STL@@QAE@XZ 0040e090 f i C3DObject.obj
 0001:0000d0d0       ?_M_decrement@?$_Deque_iterator_base@PAVC3DObjElement@@@_STL@@QAEXXZ 0040e0d0 f i C3DObject.obj
 0001:0000d140       ??0?$_STLP_alloc_proxy@PAPAPAVC3DObjElement@@PAPAV1@V?$allocator@PAVC3DObjElement@@@_STL@@@_STL@@QAE@ABV?$allocator@PAVC3DObjElement@@@1@PAPAPAVC3DObjElement@@@Z 0040e140 f i C3DObject.obj
 0001:0000d190       ??0?$_STLP_alloc_proxy@IPAVC3DObjElement@@V?$allocator@PAVC3DObjElement@@@_STL@@@_STL@@QAE@ABV?$allocator@PAVC3DObjElement@@@1@I@Z 0040e190 f i C3DObject.obj
 0001:0000d1e0       ??0?$_Deque_iterator_base@PAVC3DObjElement@@@_STL@@QAE@XZ 0040e1e0 f i C3DObject.obj
 0001:0000d230       ?_M_set_node@?$_Deque_iterator_base@PAVC3DObjElement@@@_STL@@QAEXPAPAPAVC3DObjElement@@@Z 0040e230 f i C3DObject.obj
 0001:0000d280       ??0?$allocator@PAVC3DObjElement@@@_STL@@QAE@ABV01@@Z 0040e280 f i C3DObject.obj
 0001:0000d2b0       ??0?$TVector3@M@@QAE@MMM@Z 0040e2b0 f i C3DObject.obj
 0001:0000d300       ??4?$TVector3@M@@QAEAAU0@ABU0@@Z 0040e300 f i C3DObject.obj
 0001:0000d350       ??1?$TVector3@M@@QAE@XZ    0040e350 f i C3DObject.obj
 0001:0000d390       ??4?$TColor4@M@@QAEAAV0@AAV0@@Z 0040e390 f i C3DObject.obj
 0001:0000d3f0       ??8_STL@@YA_NABV?$basic_string@DV?$char_traits@D@_STL@@V?$allocator@D@2@@0@PBD@Z 0040e3f0 f i C3DObject.obj
 0001:0000d490       ??6_STL@@YAAAV?$basic_ostream@DV?$char_traits@D@_STL@@@0@AAV10@ABV?$basic_string@DV?$char_traits@D@_STL@@V?$allocator@D@2@@0@@Z 0040e490 f i C3DObject.obj
 0001:0000d6b0       ??1?$_Deque_base@PAVC3DObjElement@@V?$allocator@PAVC3DObjElement@@@_STL@@@_STL@@QAE@XZ 0040e6b0 f i C3DObject.obj
 0001:0000d760       ?_M_initialize_map@?$_Deque_base@PAVC3DObjElement@@V?$allocator@PAVC3DObjElement@@@_STL@@@_STL@@IAEXI@Z 0040e760 f i C3DObject.obj
 0001:0000d8d0       ?_M_push_back_aux_v@?$deque@PAVC3DObjElement@@V?$allocator@PAVC3DObjElement@@@_STL@@@_STL@@IAEXABQAVC3DObjElement@@@Z 0040e8d0 f i C3DObject.obj
 0001:0000d9c0       ?_M_pop_back_aux@?$deque@PAVC3DObjElement@@V?$allocator@PAVC3DObjElement@@@_STL@@@_STL@@IAEXXZ 0040e9c0 f i C3DObject.obj
 0001:0000da40       ?_Destroy@_STL@@YAXPAV?$basic_string@DV?$char_traits@D@_STL@@V?$allocator@D@2@@1@0@Z 0040ea40 f i C3DObject.obj
 0001:0000da90       ?_Construct@_STL@@YAXPAV?$basic_string@DV?$char_traits@D@_STL@@V?$allocator@D@2@@1@ABV21@@Z 0040ea90 f i C3DObject.obj
 0001:0000db30       ??3@YAXPAX0@Z              0040eb30 f i C3DObject.obj
 0001:0000db50       ?_Destroy@_STL@@YAXPAI0@Z  0040eb50 f i C3DObject.obj
 0001:0000dba0       ?_Construct@_STL@@YAXPAIABI@Z 0040eba0 f i C3DObject.obj
 0001:0000dc00       ?_Destroy@_STL@@YAXPAPAVCLoad3DS@@0@Z 0040ec00 f i C3DObject.obj
 0001:0000dc50       ?_Construct@_STL@@YAXPAPAVCLoad3DS@@ABQAV2@@Z 0040ec50 f i C3DObject.obj
 0001:0000dcb0       ?_Destroy@_STL@@YAXU?$_Deque_iterator@PAVC3DObjElement@@U?$_Nonconst_traits@PAVC3DObjElement@@@_STL@@@1@0@Z 0040ecb0 f i C3DObject.obj
 0001:0000dd10       ?__uninitialized_copy@_STL@@YAPAV?$basic_string@DV?$char_traits@D@_STL@@V?$allocator@D@2@@1@PAV21@00ABU__false_type@1@@Z 0040ed10 f i C3DObject.obj
 0001:0000ddc0       ?__uninitialized_fill_n@_STL@@YAPAV?$basic_string@DV?$char_traits@D@_STL@@V?$allocator@D@2@@1@PAV21@IABV21@ABU__false_type@1@@Z 0040edc0 f i C3DObject.obj
 0001:0000de70       ?fill_n@_STL@@YAPAIPAIIABI@Z 0040ee70 f i C3DObject.obj
 0001:0000dec0       ?fill_n@_STL@@YAPAPAVCLoad3DS@@PAPAV2@IABQAV2@@Z 0040eec0 f i C3DObject.obj
 0001:0000df10       ??8_STL@@YA_NABU?$_Deque_iterator_base@PAVC3DObjElement@@@0@0@Z 0040ef10 f i C3DObject.obj
 0001:0000df40       ?_Construct@_STL@@YAXPAPAVC3DObjElement@@ABQAV2@@Z 0040ef40 f i C3DObject.obj
 0001:0000dfa0       ?_Destroy@_STL@@YAXPAPAVC3DObjElement@@@Z 0040efa0 f i C3DObject.obj
 0001:0000dfc0       ?__stl_alloc_rebind@_STL@@YAAAV?$allocator@V?$basic_string@DV?$char_traits@D@_STL@@V?$allocator@D@2@@_STL@@@1@AAV21@PBV?$basic_string@DV?$char_traits@D@_STL@@V?$allocator@D@2@@1@@Z 0040efc0 f i C3DObject.obj
 0001:0000dff0       ?__stl_alloc_rebind@_STL@@YAAAV?$allocator@I@1@AAV21@PBI@Z 0040eff0 f i C3DObject.obj
 0001:0000e020       ?__stl_alloc_rebind@_STL@@YAAAV?$allocator@PAVCLoad3DS@@@1@AAV21@PBQAVCLoad3DS@@@Z 0040f020 f i C3DObject.obj
 0001:0000e050       ?_M_reserve_map_at_back@?$deque@PAVC3DObjElement@@V?$allocator@PAVC3DObjElement@@@_STL@@@_STL@@IAEXI@Z 0040f050 f i C3DObject.obj
 0001:0000e0b0       ?buffer_size@?$_Deque_base@PAVC3DObjElement@@V?$allocator@PAVC3DObjElement@@@_STL@@@_STL@@SAIXZ 0040f0b0 f i C3DObject.obj
 0001:0000e0e0       ?allocate@?$_STLP_alloc_proxy@PAPAPAVC3DObjElement@@PAPAV1@V?$allocator@PAVC3DObjElement@@@_STL@@@_STL@@QAEPAPAPAVC3DObjElement@@I@Z 0040f0e0 f i C3DObject.obj
 0001:0000e130       ?deallocate@?$_STLP_alloc_proxy@PAPAPAVC3DObjElement@@PAPAV1@V?$allocator@PAVC3DObjElement@@@_STL@@@_STL@@QAEXPAPAPAVC3DObjElement@@I@Z 0040f130 f i C3DObject.obj
 0001:0000e180       ?allocate@?$_STLP_alloc_proxy@IPAVC3DObjElement@@V?$allocator@PAVC3DObjElement@@@_STL@@@_STL@@QAEPAPAVC3DObjElement@@I@Z 0040f180 f i C3DObject.obj
 0001:0000e1d0       ?deallocate@?$_STLP_alloc_proxy@IPAVC3DObjElement@@V?$allocator@PAVC3DObjElement@@@_STL@@@_STL@@QAEXPAPAVC3DObjElement@@I@Z 0040f1d0 f i C3DObject.obj
 0001:0000e220       ?allocate@?$allocator@PAVC3DObjElement@@@_STL@@QBEPAPAVC3DObjElement@@IPBX@Z 0040f220 f i C3DObject.obj
 0001:0000e280       ?deallocate@?$allocator@PAVC3DObjElement@@@_STL@@QBEXPAPAVC3DObjElement@@I@Z 0040f280 f i C3DObject.obj
 0001:0000e2e0       ?allocate@?$allocator@PAPAVC3DObjElement@@@_STL@@QBEPAPAPAVC3DObjElement@@IPBX@Z 0040f2e0 f i C3DObject.obj
 0001:0000e340       ?deallocate@?$allocator@PAPAVC3DObjElement@@@_STL@@QBEXPAPAPAVC3DObjElement@@I@Z 0040f340 f i C3DObject.obj
 0001:0000e3a0       ??0?$TVector2@M@@QAE@MM@Z  0040f3a0 f i C3DObject.obj
 0001:0000e3e0       ??1?$TVector2@M@@QAE@XZ    0040f3e0 f i C3DObject.obj
 0001:0000e410       ?__stlp_string_fill@_STL@@YA_NAAV?$basic_ostream@DV?$char_traits@D@_STL@@@1@PAV?$basic_streambuf@DV?$char_traits@D@_STL@@@1@I@Z 0040f410 f i C3DObject.obj
 0001:0000e4e0       ?eof@?$__char_traits_base@DH@_STL@@SAHXZ 0040f4e0 f i C3DObject.obj
 0001:0000e510       ?_M_create_nodes@?$_Deque_base@PAVC3DObjElement@@V?$allocator@PAVC3DObjElement@@@_STL@@@_STL@@IAEXPAPAPAVC3DObjElement@@0@Z 0040f510 f i C3DObject.obj
 0001:0000e5d0       ?_M_destroy_nodes@?$_Deque_base@PAVC3DObjElement@@V?$allocator@PAVC3DObjElement@@@_STL@@@_STL@@IAEXPAPAPAVC3DObjElement@@0@Z 0040f5d0 f i C3DObject.obj
 0001:0000e640       ?_M_reallocate_map@?$deque@PAVC3DObjElement@@V?$allocator@PAVC3DObjElement@@@_STL@@@_STL@@IAEXI_N@Z 0040f640 f i C3DObject.obj
 0001:0000e7e0       ?value_type@_STL@@YAPAV?$basic_string@DV?$char_traits@D@_STL@@V?$allocator@D@2@@1@PBV21@@Z 0040f7e0 f i C3DObject.obj
 0001:0000e810       ?__destroy@_STL@@YAXPAV?$basic_string@DV?$char_traits@D@_STL@@V?$allocator@D@2@@1@00@Z 0040f810 f i C3DObject.obj
 0001:0000e850       ?value_type@_STL@@YAPAIPBI@Z 0040f850 f i C3DObject.obj
 0001:0000e880       ?__destroy@_STL@@YAXPAI00@Z 0040f880 f i C3DObject.obj
 0001:0000e8c0       ?value_type@_STL@@YAPAPAVCLoad3DS@@PBQAV2@@Z 0040f8c0 f i C3DObject.obj
 0001:0000e8f0       ?__destroy@_STL@@YAXPAPAVCLoad3DS@@00@Z 0040f8f0 f i C3DObject.obj
 0001:0000e930       ?value_type@_STL@@YAPAPAVC3DObjElement@@ABU?$_Deque_iterator@PAVC3DObjElement@@U?$_Nonconst_traits@PAVC3DObjElement@@@_STL@@@1@@Z 0040f930 f i C3DObject.obj
 0001:0000e960       ?__destroy@_STL@@YAXU?$_Deque_iterator@PAVC3DObjElement@@U?$_Nonconst_traits@PAVC3DObjElement@@@_STL@@@1@0PAPAVC3DObjElement@@@Z 0040f960 f i C3DObject.obj
 0001:0000e9c0       ?__stl_alloc_rebind@_STL@@YAAAV?$allocator@PAPAVC3DObjElement@@@1@AAV?$allocator@PAVC3DObjElement@@@1@PBQAPAVC3DObjElement@@@Z 0040f9c0 f i C3DObject.obj
 0001:0000e9f0       ?__stl_alloc_rebind@_STL@@YAAAV?$allocator@PAVC3DObjElement@@@1@AAV21@PBQAVC3DObjElement@@@Z 0040f9f0 f i C3DObject.obj
 0001:0000ea20       ?eq_int_type@?$__char_traits_base@DH@_STL@@SA_NABH0@Z 0040fa20 f i C3DObject.obj
 0001:0000ea50       ?copy@_STL@@YAPAPAPAVC3DObjElement@@PAPAPAV2@00@Z 0040fa50 f i C3DObject.obj
 0001:0000eaa0       ?copy_backward@_STL@@YAPAPAPAVC3DObjElement@@PAPAPAV2@00@Z 0040faa0 f i C3DObject.obj
 0001:0000eaf0       ?__destroy_aux@_STL@@YAXPAV?$basic_string@DV?$char_traits@D@_STL@@V?$allocator@D@2@@1@0ABU__false_type@1@@Z 0040faf0 f i C3DObject.obj
 0001:0000eb40       ?__destroy_aux@_STL@@YAXPAI0ABU__true_type@1@@Z 0040fb40 f i C3DObject.obj
 0001:0000eb60       ?__destroy_aux@_STL@@YAXPAPAVCLoad3DS@@0ABU__true_type@1@@Z 0040fb60 f i C3DObject.obj
 0001:0000eb80       ?__destroy_aux@_STL@@YAXU?$_Deque_iterator@PAVC3DObjElement@@U?$_Nonconst_traits@PAVC3DObjElement@@@_STL@@@1@0ABU__true_type@1@@Z 0040fb80 f i C3DObject.obj
 0001:0000eba0       ?_Ret@?$_BothPtrType@PAPAPAVC3DObjElement@@PAPAPAV1@@_STL@@SA?AU__true_type@2@XZ 0040fba0 f i C3DObject.obj
 0001:0000ebd0       ?__copy_aux@_STL@@YAPAPAPAVC3DObjElement@@PAPAPAV2@00ABU__true_type@1@@Z 0040fbd0 f i C3DObject.obj
 0001:0000ec40       ?__copy_backward_aux@_STL@@YAPAPAPAVC3DObjElement@@PAPAPAV2@00ABU__true_type@1@@Z 0040fc40 f i C3DObject.obj
 0001:0000ecb0       ?_Destroy@_STL@@YAXPAV?$basic_string@DV?$char_traits@D@_STL@@V?$allocator@D@2@@1@@Z 0040fcb0 f i C3DObject.obj
 0001:0000ecf0       ??_G?$basic_string@DV?$char_traits@D@_STL@@V?$allocator@D@2@@_STL@@QAEPAXI@Z 0040fcf0 f i C3DObject.obj
 0001:0000ed50       ?_Ret@?$_OKToMemCpy@PAPAVC3DObjElement@@PAPAV1@@_STL@@SA?AU__true_type@2@XZ 0040fd50 f i C3DObject.obj
 0001:0000ed80       ?value_type@_STL@@YAPAPAPAVC3DObjElement@@PBQAPAV2@@Z 0040fd80 f i C3DObject.obj
 0001:0000edb0       ?_IsOKToMemCpy@_STL@@YA?AU?$_OKToMemCpy@PAPAVC3DObjElement@@PAPAV1@@1@PAPAPAVC3DObjElement@@0@Z 0040fdb0 f i C3DObject.obj
 0001:0000ede0       ?__copy_ptrs@_STL@@YAPAPAPAVC3DObjElement@@PAPAPAV2@00ABU__true_type@1@@Z 0040fde0 f i C3DObject.obj
 0001:0000ee20       ?__copy_backward_ptrs@_STL@@YAPAPAPAVC3DObjElement@@PAPAPAV2@00ABU__true_type@1@@Z 0040fe20 f i C3DObject.obj
 0001:0000ee60       ?__copy_trivial_backward@_STL@@YAPAXPBX0PAX@Z 0040fe60 f i C3DObject.obj
 0001:0000efd0       ?Assign3dObject@C3DObjEditor@@QAEXPAVC3DObjElement@@@Z 0040ffd0 f   C3DObjEditor.obj
 0001:0000f020       ?SearchObject_priv@C3DObjEditor@@AAEPAVC3DObjElement@@PAV2@H@Z 00410020 f   C3DObjEditor.obj
 0001:0000f0c0       ?GetChildrenNumber@C3DObjElement@@QAEAAIXZ 004100c0 f i C3DObjEditor.obj
 0001:0000f0f0       ?GetNextID_priv@C3DObjEditor@@AAEHXZ 004100f0 f   C3DObjEditor.obj
 0001:0000f150       ?SwitchAnimation@C3DObjEditor@@QAEXII@Z 00410150 f   C3DObjEditor.obj
 0001:0000f1d0       ?Render@C3DObjEditor@@QAEXXZ 004101d0 f   C3DObjEditor.obj
 0001:0000f280       ?SelectNextObject@C3DObjEditor@@QAEXXZ 00410280 f   C3DObjEditor.obj
 0001:0000f300       ?FixCurrentAnimationAnimation@C3DObjEditor@@QAEXXZ 00410300 f i C3DObjEditor.obj
 0001:0000f380       ?Render@CBubbleTexture@@QBEXXZ 00410380 f   CBubbleText.obj
 0001:0000fbd0       ??G?$TVector3@M@@QBE?AU0@ABU0@@Z 00410bd0 f i CBubbleText.obj
 0001:0000fc50       ??D?$TVector3@M@@QBE?AU0@M@Z 00410c50 f i CBubbleText.obj
 0001:0000fcc0       ??Y?$TVector3@M@@QAEAAU0@ABU0@@Z 00410cc0 f i CBubbleText.obj
 0001:0000fd20       ??Z?$TVector3@M@@QAEAAU0@ABU0@@Z 00410d20 f i CBubbleText.obj
 0001:0000fd80       ?PositionCamera3fv@CCamera@@QAEXABU?$TVector3@M@@000@Z 00410d80 f   CCamera.obj
 0001:0000fdf0       ?PositionCameraf@CCamera@@QAEXMMMMMMMMMMMM@Z 00410df0 f   CCamera.obj
 0001:0000fe90       ?Look@CCamera@@QAEXXZ      00410e90 f   CCamera.obj
 0001:0000ffd0       ?MoveCamera@CCamera@@QAEXM@Z 00410fd0 f   CCamera.obj
 0001:000100c0       ?RotateView@CCamera@@QAEXMMMM@Z 004110c0 f   CCamera.obj
 0001:000102d0       ?RotateAround@CCamera@@QAEXU?$TVector3@M@@MMMM@Z 004112d0 f   CCamera.obj
 0001:000104f0       ?SetMouseView@CCamera@@QAEXHH@Z 004114f0 f   CCamera.obj
 0001:000105f0       ?Update@CCamera@@QAEXXZ    004115f0 f   CCamera.obj
 0001:000106c0       ?cross_product@@YA?AU?$TVector3@M@@ABU1@0@Z 004116c0 f i CCamera.obj
 0001:00010710       ?ChangeMode@CCamera@@QAEXW4CModeCamera@@MM@Z 00411710 f   CCamera.obj
 0001:000108c0       ??0?$TVector3@M@@QAE@XZ    004118c0 f i CCamera.obj
 0001:00010910       ??H?$TVector3@M@@QBE?AU0@ABU0@@Z 00411910 f i CCamera.obj
 0001:00010990       ?Normalize@?$TVector3@M@@QAEAAU1@XZ 00411990 f i CCamera.obj
 0001:00010a10       ?CrossProd@?$TVector3@M@@QBE?AU1@ABU1@@Z 00411a10 f i CCamera.obj
 0001:00010ab0       ??0?$TVector2@M@@QAE@XZ    00411ab0 f i CCamera.obj
 0001:00010af0       ?Norm@?$TVector3@M@@QBEMXZ 00411af0 f i CCamera.obj
 0001:00010d60       ?InitAudio@CSoundManager@@QAE_NXZ 00411d60 f   CSoundManager.obj
 0001:00010db0       ??1CSoundManager@@QAE@XZ   00411db0 f   CSoundManager.obj
 0001:00010ed0       ??9_Rb_tree_base_iterator@_STL@@QBE_NABU01@@Z 00411ed0 f i CSoundManager.obj
 0001:00010f10       ??1?$map@IPAU_Mix_Music@@U?$less@I@_STL@@V?$allocator@U?$pair@$$CBIPAU_Mix_Music@@@_STL@@@3@@_STL@@QAE@XZ 00411f10 f i CSoundManager.obj
 0001:00010f50       ??1?$map@IPAUMix_Chunk@@U?$less@I@_STL@@V?$allocator@U?$pair@$$CBIPAUMix_Chunk@@@_STL@@@3@@_STL@@QAE@XZ 00411f50 f i CSoundManager.obj
 0001:00010f90       ?AddMusic@CSoundManager@@QAE_NPADI@Z 00411f90 f   CSoundManager.obj
 0001:00011000       ?PlayMusic@CSoundManager@@QAE_NI_N@Z 00412000 f   CSoundManager.obj
 0001:000110f0       ?StopMusic@CSoundManager@@QAEXXZ 004120f0 f   CSoundManager.obj
 0001:00011130       ?AddSound@CSoundManager@@QAE_NPADI@Z 00412130 f   CSoundManager.obj
 0001:000111f0       ?PlaySoundA@CSoundManager@@QAEHI_N@Z 004121f0 f   CSoundManager.obj
 0001:000112f0       ?StopSound@CSoundManager@@QAEXH@Z 004122f0 f   CSoundManager.obj
 0001:00011330       ?begin@?$map@IPAU_Mix_Music@@U?$less@I@_STL@@V?$allocator@U?$pair@$$CBIPAU_Mix_Music@@@_STL@@@3@@_STL@@QAE?AU?$_Rb_tree_iterator@U?$pair@$$CBIPAU_Mix_Music@@@_STL@@U?$_Nonconst_traits@U?$pair@$$CBIPAU_Mix_Music@@@_STL@@@2@@2@XZ 00412330 f i CSoundManager.obj
 0001:00011370       ?end@?$map@IPAU_Mix_Music@@U?$less@I@_STL@@V?$allocator@U?$pair@$$CBIPAU_Mix_Music@@@_STL@@@3@@_STL@@QAE?AU?$_Rb_tree_iterator@U?$pair@$$CBIPAU_Mix_Music@@@_STL@@U?$_Nonconst_traits@U?$pair@$$CBIPAU_Mix_Music@@@_STL@@@2@@2@XZ 00412370 f i CSoundManager.obj
 0001:000113b0       ?insert@?$map@IPAU_Mix_Music@@U?$less@I@_STL@@V?$allocator@U?$pair@$$CBIPAU_Mix_Music@@@_STL@@@3@@_STL@@QAE?AU?$pair@U?$_Rb_tree_iterator@U?$pair@$$CBIPAU_Mix_Music@@@_STL@@U?$_Nonconst_traits@U?$pair@$$CBIPAU_Mix_Music@@@_STL@@@2@@_STL@@_N@2@ABU?$pair@$$CBIPAU_Mix_Music@@@2@@Z 004123b0 f i CSoundManager.obj
 0001:00011400       ?find@?$map@IPAU_Mix_Music@@U?$less@I@_STL@@V?$allocator@U?$pair@$$CBIPAU_Mix_Music@@@_STL@@@3@@_STL@@QAE?AU?$_Rb_tree_iterator@U?$pair@$$CBIPAU_Mix_Music@@@_STL@@U?$_Nonconst_traits@U?$pair@$$CBIPAU_Mix_Music@@@_STL@@@2@@2@ABI@Z 00412400 f i CSoundManager.obj
 0001:00011450       ??1?$_Rb_tree@IU?$pair@$$CBIPAU_Mix_Music@@@_STL@@U?$_Select1st@U?$pair@$$CBIPAU_Mix_Music@@@_STL@@@2@U?$less@I@2@V?$allocator@U?$pair@$$CBIPAU_Mix_Music@@@_STL@@@2@@_STL@@QAE@XZ 00412450 f i CSoundManager.obj
 0001:000114c0       ??C?$_Rb_tree_iterator@U?$pair@$$CBIPAU_Mix_Music@@@_STL@@U?$_Nonconst_traits@U?$pair@$$CBIPAU_Mix_Music@@@_STL@@@2@@_STL@@QBEPAU?$pair@$$CBIPAU_Mix_Music@@@1@XZ 004124c0 f i CSoundManager.obj
 0001:00011500       ??E?$_Rb_tree_iterator@U?$pair@$$CBIPAU_Mix_Music@@@_STL@@U?$_Nonconst_traits@U?$pair@$$CBIPAU_Mix_Music@@@_STL@@@2@@_STL@@QAEAAU01@XZ 00412500 f i CSoundManager.obj
 0001:00011550       ?begin@?$map@IPAUMix_Chunk@@U?$less@I@_STL@@V?$allocator@U?$pair@$$CBIPAUMix_Chunk@@@_STL@@@3@@_STL@@QAE?AU?$_Rb_tree_iterator@U?$pair@$$CBIPAUMix_Chunk@@@_STL@@U?$_Nonconst_traits@U?$pair@$$CBIPAUMix_Chunk@@@_STL@@@2@@2@XZ 00412550 f i CSoundManager.obj
 0001:00011590       ?end@?$map@IPAUMix_Chunk@@U?$less@I@_STL@@V?$allocator@U?$pair@$$CBIPAUMix_Chunk@@@_STL@@@3@@_STL@@QAE?AU?$_Rb_tree_iterator@U?$pair@$$CBIPAUMix_Chunk@@@_STL@@U?$_Nonconst_traits@U?$pair@$$CBIPAUMix_Chunk@@@_STL@@@2@@2@XZ 00412590 f i CSoundManager.obj
 0001:000115d0       ?insert@?$map@IPAUMix_Chunk@@U?$less@I@_STL@@V?$allocator@U?$pair@$$CBIPAUMix_Chunk@@@_STL@@@3@@_STL@@QAE?AU?$pair@U?$_Rb_tree_iterator@U?$pair@$$CBIPAUMix_Chunk@@@_STL@@U?$_Nonconst_traits@U?$pair@$$CBIPAUMix_Chunk@@@_STL@@@2@@_STL@@_N@2@ABU?$pair@$$CBIPAUMix_Chunk@@@2@@Z 004125d0 f i CSoundManager.obj
 0001:00011620       ?find@?$map@IPAUMix_Chunk@@U?$less@I@_STL@@V?$allocator@U?$pair@$$CBIPAUMix_Chunk@@@_STL@@@3@@_STL@@QAE?AU?$_Rb_tree_iterator@U?$pair@$$CBIPAUMix_Chunk@@@_STL@@U?$_Nonconst_traits@U?$pair@$$CBIPAUMix_Chunk@@@_STL@@@2@@2@ABI@Z 00412620 f i CSoundManager.obj
 0001:00011670       ??1?$_Rb_tree@IU?$pair@$$CBIPAUMix_Chunk@@@_STL@@U?$_Select1st@U?$pair@$$CBIPAUMix_Chunk@@@_STL@@@2@U?$less@I@2@V?$allocator@U?$pair@$$CBIPAUMix_Chunk@@@_STL@@@2@@_STL@@QAE@XZ 00412670 f i CSoundManager.obj
 0001:000116e0       ??C?$_Rb_tree_iterator@U?$pair@$$CBIPAUMix_Chunk@@@_STL@@U?$_Nonconst_traits@U?$pair@$$CBIPAUMix_Chunk@@@_STL@@@2@@_STL@@QBEPAU?$pair@$$CBIPAUMix_Chunk@@@1@XZ 004126e0 f i CSoundManager.obj
 0001:00011720       ??E?$_Rb_tree_iterator@U?$pair@$$CBIPAUMix_Chunk@@@_STL@@U?$_Nonconst_traits@U?$pair@$$CBIPAUMix_Chunk@@@_STL@@@2@@_STL@@QAEAAU01@XZ 00412720 f i CSoundManager.obj
 0001:00011770       ??1?$TSingleton@VCSoundManager@@@@QAE@XZ 00412770 f i CSoundManager.obj
 0001:000117e0       ??0?$pair@$$CBIPAU_Mix_Music@@@_STL@@QAE@ABIABQAU_Mix_Music@@@Z 004127e0 f i CSoundManager.obj
 0001:00011820       ??0?$pair@$$CBIPAUMix_Chunk@@@_STL@@QAE@ABIABQAUMix_Chunk@@@Z 00412820 f i CSoundManager.obj
 0001:00011860       ?begin@?$_Rb_tree@IU?$pair@$$CBIPAU_Mix_Music@@@_STL@@U?$_Select1st@U?$pair@$$CBIPAU_Mix_Music@@@_STL@@@2@U?$less@I@2@V?$allocator@U?$pair@$$CBIPAU_Mix_Music@@@_STL@@@2@@_STL@@QAE?AU?$_Rb_tree_iterator@U?$pair@$$CBIPAU_Mix_Music@@@_STL@@U?$_Nonconst_traits@U?$pair@$$CBIPAU_Mix_Music@@@_STL@@@2@@2@XZ 00412860 f i CSoundManager.obj
 0001:000118b0       ?end@?$_Rb_tree@IU?$pair@$$CBIPAU_Mix_Music@@@_STL@@U?$_Select1st@U?$pair@$$CBIPAU_Mix_Music@@@_STL@@@2@U?$less@I@2@V?$allocator@U?$pair@$$CBIPAU_Mix_Music@@@_STL@@@2@@_STL@@QAE?AU?$_Rb_tree_iterator@U?$pair@$$CBIPAU_Mix_Music@@@_STL@@U?$_Nonconst_traits@U?$pair@$$CBIPAU_Mix_Music@@@_STL@@@2@@2@XZ 004128b0 f i CSoundManager.obj
 0001:00011900       ?clear@?$_Rb_tree@IU?$pair@$$CBIPAU_Mix_Music@@@_STL@@U?$_Select1st@U?$pair@$$CBIPAU_Mix_Music@@@_STL@@@2@U?$less@I@2@V?$allocator@U?$pair@$$CBIPAU_Mix_Music@@@_STL@@@2@@_STL@@QAEXXZ 00412900 f i CSoundManager.obj
 0001:00011980       ??1?$_Rb_tree_base@U?$pair@$$CBIPAU_Mix_Music@@@_STL@@V?$allocator@U?$pair@$$CBIPAU_Mix_Music@@@_STL@@@2@@_STL@@QAE@XZ 00412980 f i CSoundManager.obj
 0001:00011a00       ??D?$_Rb_tree_iterator@U?$pair@$$CBIPAU_Mix_Music@@@_STL@@U?$_Nonconst_traits@U?$pair@$$CBIPAU_Mix_Music@@@_STL@@@2@@_STL@@QBEAAU?$pair@$$CBIPAU_Mix_Music@@@1@XZ 00412a00 f i CSoundManager.obj
 0001:00011a30       ?begin@?$_Rb_tree@IU?$pair@$$CBIPAUMix_Chunk@@@_STL@@U?$_Select1st@U?$pair@$$CBIPAUMix_Chunk@@@_STL@@@2@U?$less@I@2@V?$allocator@U?$pair@$$CBIPAUMix_Chunk@@@_STL@@@2@@_STL@@QAE?AU?$_Rb_tree_iterator@U?$pair@$$CBIPAUMix_Chunk@@@_STL@@U?$_Nonconst_traits@U?$pair@$$CBIPAUMix_Chunk@@@_STL@@@2@@2@XZ 00412a30 f i CSoundManager.obj
 0001:00011a80       ?end@?$_Rb_tree@IU?$pair@$$CBIPAUMix_Chunk@@@_STL@@U?$_Select1st@U?$pair@$$CBIPAUMix_Chunk@@@_STL@@@2@U?$less@I@2@V?$allocator@U?$pair@$$CBIPAUMix_Chunk@@@_STL@@@2@@_STL@@QAE?AU?$_Rb_tree_iterator@U?$pair@$$CBIPAUMix_Chunk@@@_STL@@U?$_Nonconst_traits@U?$pair@$$CBIPAUMix_Chunk@@@_STL@@@2@@2@XZ 00412a80 f i CSoundManager.obj
 0001:00011ad0       ?clear@?$_Rb_tree@IU?$pair@$$CBIPAUMix_Chunk@@@_STL@@U?$_Select1st@U?$pair@$$CBIPAUMix_Chunk@@@_STL@@@2@U?$less@I@2@V?$allocator@U?$pair@$$CBIPAUMix_Chunk@@@_STL@@@2@@_STL@@QAEXXZ 00412ad0 f i CSoundManager.obj
 0001:00011b50       ??1?$_Rb_tree_base@U?$pair@$$CBIPAUMix_Chunk@@@_STL@@V?$allocator@U?$pair@$$CBIPAUMix_Chunk@@@_STL@@@2@@_STL@@QAE@XZ 00412b50 f i CSoundManager.obj
 0001:00011bd0       ??D?$_Rb_tree_iterator@U?$pair@$$CBIPAUMix_Chunk@@@_STL@@U?$_Nonconst_traits@U?$pair@$$CBIPAUMix_Chunk@@@_STL@@@2@@_STL@@QBEAAU?$pair@$$CBIPAUMix_Chunk@@@1@XZ 00412bd0 f i CSoundManager.obj
 0001:00011c00       ??1?$_STLP_alloc_proxy@PAU?$_Rb_tree_node@U?$pair@$$CBIPAU_Mix_Music@@@_STL@@@_STL@@U12@V?$allocator@U?$pair@$$CBIPAU_Mix_Music@@@_STL@@@2@@_STL@@QAE@XZ 00412c00 f i CSoundManager.obj
 0001:00011c40       ??1?$allocator@U?$pair@$$CBIPAU_Mix_Music@@@_STL@@@_STL@@QAE@XZ 00412c40 f i CSoundManager.obj
 0001:00011c70       ??1?$_STLP_alloc_proxy@PAU?$_Rb_tree_node@U?$pair@$$CBIPAUMix_Chunk@@@_STL@@@_STL@@U12@V?$allocator@U?$pair@$$CBIPAUMix_Chunk@@@_STL@@@2@@_STL@@QAE@XZ 00412c70 f i CSoundManager.obj
 0001:00011cb0       ??1?$allocator@U?$pair@$$CBIPAUMix_Chunk@@@_STL@@@_STL@@QAE@XZ 00412cb0 f i CSoundManager.obj
 0001:00011ce0       ?_M_root@?$_Rb_tree@IU?$pair@$$CBIPAU_Mix_Music@@@_STL@@U?$_Select1st@U?$pair@$$CBIPAU_Mix_Music@@@_STL@@@2@U?$less@I@2@V?$allocator@U?$pair@$$CBIPAU_Mix_Music@@@_STL@@@2@@_STL@@IBEAAPAU?$_Rb_tree_node@U?$pair@$$CBIPAU_Mix_Music@@@_STL@@@2@XZ 00412ce0 f i CSoundManager.obj
 0001:00011d10       ?_M_leftmost@?$_Rb_tree@IU?$pair@$$CBIPAU_Mix_Music@@@_STL@@U?$_Select1st@U?$pair@$$CBIPAU_Mix_Music@@@_STL@@@2@U?$less@I@2@V?$allocator@U?$pair@$$CBIPAU_Mix_Music@@@_STL@@@2@@_STL@@IBEAAPAU?$_Rb_tree_node@U?$pair@$$CBIPAU_Mix_Music@@@_STL@@@2@XZ 00412d10 f i CSoundManager.obj
 0001:00011d40       ?_M_rightmost@?$_Rb_tree@IU?$pair@$$CBIPAU_Mix_Music@@@_STL@@U?$_Select1st@U?$pair@$$CBIPAU_Mix_Music@@@_STL@@@2@U?$less@I@2@V?$allocator@U?$pair@$$CBIPAU_Mix_Music@@@_STL@@@2@@_STL@@IBEAAPAU?$_Rb_tree_node@U?$pair@$$CBIPAU_Mix_Music@@@_STL@@@2@XZ 00412d40 f i CSoundManager.obj
 0001:00011d70       ?deallocate@?$_STLP_alloc_proxy@PAU?$_Rb_tree_node@U?$pair@$$CBIPAU_Mix_Music@@@_STL@@@_STL@@U12@V?$allocator@U?$pair@$$CBIPAU_Mix_Music@@@_STL@@@2@@_STL@@QAEXPAU?$_Rb_tree_node@U?$pair@$$CBIPAU_Mix_Music@@@_STL@@@2@I@Z 00412d70 f i CSoundManager.obj
 0001:00011dc0       ??0?$_Rb_tree_iterator@U?$pair@$$CBIPAU_Mix_Music@@@_STL@@U?$_Nonconst_traits@U?$pair@$$CBIPAU_Mix_Music@@@_STL@@@2@@_STL@@QAE@PAU?$_Rb_tree_node@U?$pair@$$CBIPAU_Mix_Music@@@_STL@@@1@@Z 00412dc0 f i CSoundManager.obj
 0001:00011e00       ?_M_root@?$_Rb_tree@IU?$pair@$$CBIPAUMix_Chunk@@@_STL@@U?$_Select1st@U?$pair@$$CBIPAUMix_Chunk@@@_STL@@@2@U?$less@I@2@V?$allocator@U?$pair@$$CBIPAUMix_Chunk@@@_STL@@@2@@_STL@@IBEAAPAU?$_Rb_tree_node@U?$pair@$$CBIPAUMix_Chunk@@@_STL@@@2@XZ 00412e00 f i CSoundManager.obj
 0001:00011e30       ?_M_leftmost@?$_Rb_tree@IU?$pair@$$CBIPAUMix_Chunk@@@_STL@@U?$_Select1st@U?$pair@$$CBIPAUMix_Chunk@@@_STL@@@2@U?$less@I@2@V?$allocator@U?$pair@$$CBIPAUMix_Chunk@@@_STL@@@2@@_STL@@IBEAAPAU?$_Rb_tree_node@U?$pair@$$CBIPAUMix_Chunk@@@_STL@@@2@XZ 00412e30 f i CSoundManager.obj
 0001:00011e60       ?_M_rightmost@?$_Rb_tree@IU?$pair@$$CBIPAUMix_Chunk@@@_STL@@U?$_Select1st@U?$pair@$$CBIPAUMix_Chunk@@@_STL@@@2@U?$less@I@2@V?$allocator@U?$pair@$$CBIPAUMix_Chunk@@@_STL@@@2@@_STL@@IBEAAPAU?$_Rb_tree_node@U?$pair@$$CBIPAUMix_Chunk@@@_STL@@@2@XZ 00412e60 f i CSoundManager.obj
 0001:00011e90       ?deallocate@?$_STLP_alloc_proxy@PAU?$_Rb_tree_node@U?$pair@$$CBIPAUMix_Chunk@@@_STL@@@_STL@@U12@V?$allocator@U?$pair@$$CBIPAUMix_Chunk@@@_STL@@@2@@_STL@@QAEXPAU?$_Rb_tree_node@U?$pair@$$CBIPAUMix_Chunk@@@_STL@@@2@I@Z 00412e90 f i CSoundManager.obj
 0001:00011ee0       ??0?$_Rb_tree_iterator@U?$pair@$$CBIPAUMix_Chunk@@@_STL@@U?$_Nonconst_traits@U?$pair@$$CBIPAUMix_Chunk@@@_STL@@@2@@_STL@@QAE@PAU?$_Rb_tree_node@U?$pair@$$CBIPAUMix_Chunk@@@_STL@@@1@@Z 00412ee0 f i CSoundManager.obj
 0001:00011f20       ?deallocate@?$allocator@U?$_Rb_tree_node@U?$pair@$$CBIPAU_Mix_Music@@@_STL@@@_STL@@@_STL@@QBEXPAU?$_Rb_tree_node@U?$pair@$$CBIPAU_Mix_Music@@@_STL@@@2@I@Z 00412f20 f i CSoundManager.obj
 0001:00011f80       ?deallocate@?$allocator@U?$_Rb_tree_node@U?$pair@$$CBIPAUMix_Chunk@@@_STL@@@_STL@@@_STL@@QBEXPAU?$_Rb_tree_node@U?$pair@$$CBIPAUMix_Chunk@@@_STL@@@2@I@Z 00412f80 f i CSoundManager.obj
 0001:00011fe0       ?_M_erase@?$_Rb_tree@IU?$pair@$$CBIPAU_Mix_Music@@@_STL@@U?$_Select1st@U?$pair@$$CBIPAU_Mix_Music@@@_STL@@@2@U?$less@I@2@V?$allocator@U?$pair@$$CBIPAU_Mix_Music@@@_STL@@@2@@_STL@@AAEXPAU?$_Rb_tree_node@U?$pair@$$CBIPAU_Mix_Music@@@_STL@@@2@@Z 00412fe0 f i CSoundManager.obj
 0001:00012070       ?insert_unique@?$_Rb_tree@IU?$pair@$$CBIPAU_Mix_Music@@@_STL@@U?$_Select1st@U?$pair@$$CBIPAU_Mix_Music@@@_STL@@@2@U?$less@I@2@V?$allocator@U?$pair@$$CBIPAU_Mix_Music@@@_STL@@@2@@_STL@@QAE?AU?$pair@U?$_Rb_tree_iterator@U?$pair@$$CBIPAU_Mix_Music@@@_STL@@U?$_Nonconst_traits@U?$pair@$$CBIPAU_Mix_Music@@@_STL@@@2@@_STL@@_N@2@ABU?$pair@$$CBIPAU_Mix_Music@@@2@@Z 00413070 f i CSoundManager.obj
 0001:00012210       ??8_Rb_tree_base_iterator@_STL@@QBE_NABU01@@Z 00413210 f i CSoundManager.obj
 0001:00012250       ?_M_erase@?$_Rb_tree@IU?$pair@$$CBIPAUMix_Chunk@@@_STL@@U?$_Select1st@U?$pair@$$CBIPAUMix_Chunk@@@_STL@@@2@U?$less@I@2@V?$allocator@U?$pair@$$CBIPAUMix_Chunk@@@_STL@@@2@@_STL@@AAEXPAU?$_Rb_tree_node@U?$pair@$$CBIPAUMix_Chunk@@@_STL@@@2@@Z 00413250 f i CSoundManager.obj
 0001:000122e0       ?insert_unique@?$_Rb_tree@IU?$pair@$$CBIPAUMix_Chunk@@@_STL@@U?$_Select1st@U?$pair@$$CBIPAUMix_Chunk@@@_STL@@@2@U?$less@I@2@V?$allocator@U?$pair@$$CBIPAUMix_Chunk@@@_STL@@@2@@_STL@@QAE?AU?$pair@U?$_Rb_tree_iterator@U?$pair@$$CBIPAUMix_Chunk@@@_STL@@U?$_Nonconst_traits@U?$pair@$$CBIPAUMix_Chunk@@@_STL@@@2@@_STL@@_N@2@ABU?$pair@$$CBIPAUMix_Chunk@@@2@@Z 004132e0 f i CSoundManager.obj
 0001:00012480       ?find@?$_Rb_tree@IU?$pair@$$CBIPAU_Mix_Music@@@_STL@@U?$_Select1st@U?$pair@$$CBIPAU_Mix_Music@@@_STL@@@2@U?$less@I@2@V?$allocator@U?$pair@$$CBIPAU_Mix_Music@@@_STL@@@2@@_STL@@QAE?AU?$_Rb_tree_iterator@U?$pair@$$CBIPAU_Mix_Music@@@_STL@@U?$_Nonconst_traits@U?$pair@$$CBIPAU_Mix_Music@@@_STL@@@2@@2@ABI@Z 00413480 f i CSoundManager.obj
 0001:000124d0       ?find@?$_Rb_tree@IU?$pair@$$CBIPAUMix_Chunk@@@_STL@@U?$_Select1st@U?$pair@$$CBIPAUMix_Chunk@@@_STL@@@2@U?$less@I@2@V?$allocator@U?$pair@$$CBIPAUMix_Chunk@@@_STL@@@2@@_STL@@QAE?AU?$_Rb_tree_iterator@U?$pair@$$CBIPAUMix_Chunk@@@_STL@@U?$_Nonconst_traits@U?$pair@$$CBIPAUMix_Chunk@@@_STL@@@2@@2@ABI@Z 004134d0 f i CSoundManager.obj
 0001:00012520       ?__stl_alloc_rebind@_STL@@YAAAV?$allocator@U?$_Rb_tree_node@U?$pair@$$CBIPAU_Mix_Music@@@_STL@@@_STL@@@1@AAV?$allocator@U?$pair@$$CBIPAU_Mix_Music@@@_STL@@@1@PBU?$_Rb_tree_node@U?$pair@$$CBIPAU_Mix_Music@@@_STL@@@1@@Z 00413520 f i CSoundManager.obj
 0001:00012550       ?__stl_alloc_rebind@_STL@@YAAAV?$allocator@U?$_Rb_tree_node@U?$pair@$$CBIPAUMix_Chunk@@@_STL@@@_STL@@@1@AAV?$allocator@U?$pair@$$CBIPAUMix_Chunk@@@_STL@@@1@PBU?$_Rb_tree_node@U?$pair@$$CBIPAUMix_Chunk@@@_STL@@@1@@Z 00413550 f i CSoundManager.obj
 0001:00012580       ??R?$less@I@_STL@@QBE_NABI0@Z 00413580 f i CSoundManager.obj
 0001:000125c0       ?_S_left@?$_Rb_tree@IU?$pair@$$CBIPAU_Mix_Music@@@_STL@@U?$_Select1st@U?$pair@$$CBIPAU_Mix_Music@@@_STL@@@2@U?$less@I@2@V?$allocator@U?$pair@$$CBIPAU_Mix_Music@@@_STL@@@2@@_STL@@KAAAPAU?$_Rb_tree_node@U?$pair@$$CBIPAU_Mix_Music@@@_STL@@@2@PAU32@@Z 004135c0 f i CSoundManager.obj
 0001:000125f0       ?_S_right@?$_Rb_tree@IU?$pair@$$CBIPAU_Mix_Music@@@_STL@@U?$_Select1st@U?$pair@$$CBIPAU_Mix_Music@@@_STL@@@2@U?$less@I@2@V?$allocator@U?$pair@$$CBIPAU_Mix_Music@@@_STL@@@2@@_STL@@KAAAPAU?$_Rb_tree_node@U?$pair@$$CBIPAU_Mix_Music@@@_STL@@@2@PAU32@@Z 004135f0 f i CSoundManager.obj
 0001:00012620       ?_S_key@?$_Rb_tree@IU?$pair@$$CBIPAU_Mix_Music@@@_STL@@U?$_Select1st@U?$pair@$$CBIPAU_Mix_Music@@@_STL@@@2@U?$less@I@2@V?$allocator@U?$pair@$$CBIPAU_Mix_Music@@@_STL@@@2@@_STL@@KAABIPAU?$_Rb_tree_node@U?$pair@$$CBIPAU_Mix_Music@@@_STL@@@2@@Z 00413620 f i CSoundManager.obj
 0001:00012660       ?_S_key@?$_Rb_tree@IU?$pair@$$CBIPAU_Mix_Music@@@_STL@@U?$_Select1st@U?$pair@$$CBIPAU_Mix_Music@@@_STL@@@2@U?$less@I@2@V?$allocator@U?$pair@$$CBIPAU_Mix_Music@@@_STL@@@2@@_STL@@KAABIPAU_Rb_tree_node_base@2@@Z 00413660 f i CSoundManager.obj
 0001:000126a0       ??F?$_Rb_tree_iterator@U?$pair@$$CBIPAU_Mix_Music@@@_STL@@U?$_Nonconst_traits@U?$pair@$$CBIPAU_Mix_Music@@@_STL@@@2@@_STL@@QAEAAU01@XZ 004136a0 f i CSoundManager.obj
 0001:000126f0       ?_S_left@?$_Rb_tree@IU?$pair@$$CBIPAUMix_Chunk@@@_STL@@U?$_Select1st@U?$pair@$$CBIPAUMix_Chunk@@@_STL@@@2@U?$less@I@2@V?$allocator@U?$pair@$$CBIPAUMix_Chunk@@@_STL@@@2@@_STL@@KAAAPAU?$_Rb_tree_node@U?$pair@$$CBIPAUMix_Chunk@@@_STL@@@2@PAU32@@Z 004136f0 f i CSoundManager.obj
 0001:00012720       ?_S_right@?$_Rb_tree@IU?$pair@$$CBIPAUMix_Chunk@@@_STL@@U?$_Select1st@U?$pair@$$CBIPAUMix_Chunk@@@_STL@@@2@U?$less@I@2@V?$allocator@U?$pair@$$CBIPAUMix_Chunk@@@_STL@@@2@@_STL@@KAAAPAU?$_Rb_tree_node@U?$pair@$$CBIPAUMix_Chunk@@@_STL@@@2@PAU32@@Z 00413720 f i CSoundManager.obj
 0001:00012750       ?_S_key@?$_Rb_tree@IU?$pair@$$CBIPAUMix_Chunk@@@_STL@@U?$_Select1st@U?$pair@$$CBIPAUMix_Chunk@@@_STL@@@2@U?$less@I@2@V?$allocator@U?$pair@$$CBIPAUMix_Chunk@@@_STL@@@2@@_STL@@KAABIPAU?$_Rb_tree_node@U?$pair@$$CBIPAUMix_Chunk@@@_STL@@@2@@Z 00413750 f i CSoundManager.obj
 0001:00012790       ?_S_key@?$_Rb_tree@IU?$pair@$$CBIPAUMix_Chunk@@@_STL@@U?$_Select1st@U?$pair@$$CBIPAUMix_Chunk@@@_STL@@@2@U?$less@I@2@V?$allocator@U?$pair@$$CBIPAUMix_Chunk@@@_STL@@@2@@_STL@@KAABIPAU_Rb_tree_node_base@2@@Z 00413790 f i CSoundManager.obj
 0001:000127d0       ??F?$_Rb_tree_iterator@U?$pair@$$CBIPAUMix_Chunk@@@_STL@@U?$_Nonconst_traits@U?$pair@$$CBIPAUMix_Chunk@@@_STL@@@2@@_STL@@QAEAAU01@XZ 004137d0 f i CSoundManager.obj
 0001:00012820       ??0?$pair@U?$_Rb_tree_iterator@U?$pair@$$CBIPAU_Mix_Music@@@_STL@@U?$_Nonconst_traits@U?$pair@$$CBIPAU_Mix_Music@@@_STL@@@2@@_STL@@_N@_STL@@QAE@ABU?$_Rb_tree_iterator@U?$pair@$$CBIPAU_Mix_Music@@@_STL@@U?$_Nonconst_traits@U?$pair@$$CBIPAU_Mix_Music@@@_STL@@@2@@1@AB_N@Z 00413820 f i CSoundManager.obj
 0001:00012870       ??0?$pair@U?$_Rb_tree_iterator@U?$pair@$$CBIPAUMix_Chunk@@@_STL@@U?$_Nonconst_traits@U?$pair@$$CBIPAUMix_Chunk@@@_STL@@@2@@_STL@@_N@_STL@@QAE@ABU?$_Rb_tree_iterator@U?$pair@$$CBIPAUMix_Chunk@@@_STL@@U?$_Nonconst_traits@U?$pair@$$CBIPAUMix_Chunk@@@_STL@@@2@@1@AB_N@Z 00413870 f i CSoundManager.obj
 0001:000128c0       ??R?$_Select1st@U?$pair@$$CBIPAU_Mix_Music@@@_STL@@@_STL@@QBEABIABU?$pair@$$CBIPAU_Mix_Music@@@1@@Z 004138c0 f i CSoundManager.obj
 0001:000128f0       ??R?$_Select1st@U?$pair@$$CBIPAUMix_Chunk@@@_STL@@@_STL@@QBEABIABU?$pair@$$CBIPAUMix_Chunk@@@1@@Z 004138f0 f i CSoundManager.obj
 0001:00012920       ?_S_value@?$_Rb_tree@IU?$pair@$$CBIPAU_Mix_Music@@@_STL@@U?$_Select1st@U?$pair@$$CBIPAU_Mix_Music@@@_STL@@@2@U?$less@I@2@V?$allocator@U?$pair@$$CBIPAU_Mix_Music@@@_STL@@@2@@_STL@@KAAAU?$pair@$$CBIPAU_Mix_Music@@@2@PAU?$_Rb_tree_node@U?$pair@$$CBIPAU_Mix_Music@@@_STL@@@2@@Z 00413920 f i CSoundManager.obj
 0001:00012950       ??0?$_Rb_tree_iterator@U?$pair@$$CBIPAU_Mix_Music@@@_STL@@U?$_Nonconst_traits@U?$pair@$$CBIPAU_Mix_Music@@@_STL@@@2@@_STL@@QAE@ABU01@@Z 00413950 f i CSoundManager.obj
 0001:00012990       ?_S_value@?$_Rb_tree@IU?$pair@$$CBIPAUMix_Chunk@@@_STL@@U?$_Select1st@U?$pair@$$CBIPAUMix_Chunk@@@_STL@@@2@U?$less@I@2@V?$allocator@U?$pair@$$CBIPAUMix_Chunk@@@_STL@@@2@@_STL@@KAAAU?$pair@$$CBIPAUMix_Chunk@@@2@PAU?$_Rb_tree_node@U?$pair@$$CBIPAUMix_Chunk@@@_STL@@@2@@Z 00413990 f i CSoundManager.obj
 0001:000129c0       ??0?$_Rb_tree_iterator@U?$pair@$$CBIPAUMix_Chunk@@@_STL@@U?$_Nonconst_traits@U?$pair@$$CBIPAUMix_Chunk@@@_STL@@@2@@_STL@@QAE@ABU01@@Z 004139c0 f i CSoundManager.obj
 0001:00012a00       ?_M_insert@?$_Rb_tree@IU?$pair@$$CBIPAU_Mix_Music@@@_STL@@U?$_Select1st@U?$pair@$$CBIPAU_Mix_Music@@@_STL@@@2@U?$less@I@2@V?$allocator@U?$pair@$$CBIPAU_Mix_Music@@@_STL@@@2@@_STL@@AAE?AU?$_Rb_tree_iterator@U?$pair@$$CBIPAU_Mix_Music@@@_STL@@U?$_Nonconst_traits@U?$pair@$$CBIPAU_Mix_Music@@@_STL@@@2@@2@PAU_Rb_tree_node_base@2@0ABU?$pair@$$CBIPAU_Mix_Music@@@2@0@Z 00413a00 f i CSoundManager.obj
 0001:00012ba0       ?_Destroy@_STL@@YAXPAU?$pair@$$CBIPAU_Mix_Music@@@1@@Z 00413ba0 f i CSoundManager.obj
 0001:00012bc0       ?_M_insert@?$_Rb_tree@IU?$pair@$$CBIPAUMix_Chunk@@@_STL@@U?$_Select1st@U?$pair@$$CBIPAUMix_Chunk@@@_STL@@@2@U?$less@I@2@V?$allocator@U?$pair@$$CBIPAUMix_Chunk@@@_STL@@@2@@_STL@@AAE?AU?$_Rb_tree_iterator@U?$pair@$$CBIPAUMix_Chunk@@@_STL@@U?$_Nonconst_traits@U?$pair@$$CBIPAUMix_Chunk@@@_STL@@@2@@2@PAU_Rb_tree_node_base@2@0ABU?$pair@$$CBIPAUMix_Chunk@@@2@0@Z 00413bc0 f i CSoundManager.obj
 0001:00012d60       ?_Destroy@_STL@@YAXPAU?$pair@$$CBIPAUMix_Chunk@@@1@@Z 00413d60 f i CSoundManager.obj
 0001:00012d80       ?_M_find@?$_Rb_tree@IU?$pair@$$CBIPAU_Mix_Music@@@_STL@@U?$_Select1st@U?$pair@$$CBIPAU_Mix_Music@@@_STL@@@2@U?$less@I@2@V?$allocator@U?$pair@$$CBIPAU_Mix_Music@@@_STL@@@2@@_STL@@ABEPAU?$_Rb_tree_node@U?$pair@$$CBIPAU_Mix_Music@@@_STL@@@2@ABI@Z 00413d80 f i CSoundManager.obj
 0001:00012e60       ?_M_find@?$_Rb_tree@IU?$pair@$$CBIPAUMix_Chunk@@@_STL@@U?$_Select1st@U?$pair@$$CBIPAUMix_Chunk@@@_STL@@@2@U?$less@I@2@V?$allocator@U?$pair@$$CBIPAUMix_Chunk@@@_STL@@@2@@_STL@@ABEPAU?$_Rb_tree_node@U?$pair@$$CBIPAUMix_Chunk@@@_STL@@@2@ABI@Z 00413e60 f i CSoundManager.obj
 0001:00012f40       ?_M_create_node@?$_Rb_tree@IU?$pair@$$CBIPAU_Mix_Music@@@_STL@@U?$_Select1st@U?$pair@$$CBIPAU_Mix_Music@@@_STL@@@2@U?$less@I@2@V?$allocator@U?$pair@$$CBIPAU_Mix_Music@@@_STL@@@2@@_STL@@IAEPAU?$_Rb_tree_node@U?$pair@$$CBIPAU_Mix_Music@@@_STL@@@2@ABU?$pair@$$CBIPAU_Mix_Music@@@2@@Z 00413f40 f i CSoundManager.obj
 0001:00012fe0       ?allocate@?$_STLP_alloc_proxy@PAU?$_Rb_tree_node@U?$pair@$$CBIPAU_Mix_Music@@@_STL@@@_STL@@U12@V?$allocator@U?$pair@$$CBIPAU_Mix_Music@@@_STL@@@2@@_STL@@QAEPAU?$_Rb_tree_node@U?$pair@$$CBIPAU_Mix_Music@@@_STL@@@2@I@Z 00413fe0 f i CSoundManager.obj
 0001:00013030       ?allocate@?$allocator@U?$_Rb_tree_node@U?$pair@$$CBIPAU_Mix_Music@@@_STL@@@_STL@@@_STL@@QBEPAU?$_Rb_tree_node@U?$pair@$$CBIPAU_Mix_Music@@@_STL@@@2@IPBX@Z 00414030 f i CSoundManager.obj
 0001:00013090       ?_S_parent@?$_Rb_tree@IU?$pair@$$CBIPAU_Mix_Music@@@_STL@@U?$_Select1st@U?$pair@$$CBIPAU_Mix_Music@@@_STL@@@2@U?$less@I@2@V?$allocator@U?$pair@$$CBIPAU_Mix_Music@@@_STL@@@2@@_STL@@KAAAPAU?$_Rb_tree_node@U?$pair@$$CBIPAU_Mix_Music@@@_STL@@@2@PAU32@@Z 00414090 f i CSoundManager.obj
 0001:000130c0       ?_M_create_node@?$_Rb_tree@IU?$pair@$$CBIPAUMix_Chunk@@@_STL@@U?$_Select1st@U?$pair@$$CBIPAUMix_Chunk@@@_STL@@@2@U?$less@I@2@V?$allocator@U?$pair@$$CBIPAUMix_Chunk@@@_STL@@@2@@_STL@@IAEPAU?$_Rb_tree_node@U?$pair@$$CBIPAUMix_Chunk@@@_STL@@@2@ABU?$pair@$$CBIPAUMix_Chunk@@@2@@Z 004140c0 f i CSoundManager.obj
 0001:00013160       ?allocate@?$_STLP_alloc_proxy@PAU?$_Rb_tree_node@U?$pair@$$CBIPAUMix_Chunk@@@_STL@@@_STL@@U12@V?$allocator@U?$pair@$$CBIPAUMix_Chunk@@@_STL@@@2@@_STL@@QAEPAU?$_Rb_tree_node@U?$pair@$$CBIPAUMix_Chunk@@@_STL@@@2@I@Z 00414160 f i CSoundManager.obj
 0001:000131b0       ?allocate@?$allocator@U?$_Rb_tree_node@U?$pair@$$CBIPAUMix_Chunk@@@_STL@@@_STL@@@_STL@@QBEPAU?$_Rb_tree_node@U?$pair@$$CBIPAUMix_Chunk@@@_STL@@@2@IPBX@Z 004141b0 f i CSoundManager.obj
 0001:00013210       ?_S_parent@?$_Rb_tree@IU?$pair@$$CBIPAUMix_Chunk@@@_STL@@U?$_Select1st@U?$pair@$$CBIPAUMix_Chunk@@@_STL@@@2@U?$less@I@2@V?$allocator@U?$pair@$$CBIPAUMix_Chunk@@@_STL@@@2@@_STL@@KAAAPAU?$_Rb_tree_node@U?$pair@$$CBIPAUMix_Chunk@@@_STL@@@2@PAU32@@Z 00414210 f i CSoundManager.obj
 0001:00013240       ?_Construct@_STL@@YAXPAU?$pair@$$CBIPAU_Mix_Music@@@1@ABU21@@Z 00414240 f i CSoundManager.obj
 0001:000132d0       ?_Construct@_STL@@YAXPAU?$pair@$$CBIPAUMix_Chunk@@@1@ABU21@@Z 004142d0 f i CSoundManager.obj
 0001:00013360       ??0?$pair@$$CBIPAU_Mix_Music@@@_STL@@QAE@ABU01@@Z 00414360 f i CSoundManager.obj
 0001:000133a0       ??0?$pair@$$CBIPAUMix_Chunk@@@_STL@@QAE@ABU01@@Z 004143a0 f i CSoundManager.obj
 0001:000133e0       _CustomAssertFunction      004143e0 f   customassert.obj
 0001:00013500       ?fontBuild@@YAXII@Z        00414500 f   font.obj
 0001:00013910       ?fontKill@@YAXXZ           00414910 f   font.obj
 0001:00013980       ?fontResize@@YAXHH@Z       00414980 f   font.obj
 0001:000139b0       ?fontPrint@@YAXHHPADH@Z    004149b0 f   font.obj
 0001:00013cc0       ?glPrint_chsize@@YAXHHPADHHH@Z 00414cc0 f   font.obj
 0001:00013d40       ??1CParticleSystem@@QAE@XZ 00414d40 f   particles.obj
 0001:00013e40       ??1CParticle@@QAE@XZ       00414e40 f i particles.obj
 0001:00013ec0       ??_GCParticle@@QAEPAXI@Z   00414ec0 f i particles.obj
 0001:00013f20       ?RandomizeStartParticle@CParticleSystem@@QAEXAAVCParticle@@@Z 00414f20 f   particles.obj
 0001:000140e0       ?DeleteTextures@CParticleSystem@@QAEXXZ 004150e0 f   particles.obj
 0001:00014160       ?ResetTextures@CParticleSystem@@QAEXI@Z 00415160 f   particles.obj
 0001:000141d0       ?Render@CParticleSystem@@QAEXXZ 004151d0 f   particles.obj
 0001:00014730       ?IsEnabled@CParticle@@QBE?B_NXZ 00415730 f i particles.obj
 0001:00014760       ?Update@CConstantParticleSystem@@UAEXM@Z 00415760 f   particles.obj
 0001:000149a0       ?Enable@CParticle@@QAEXXZ  004159a0 f i particles.obj
 0001:000149d0       ?Update@CCastParticleSystem@@UAEXM@Z 004159d0 f   particles.obj
 0001:00014b80       ?init@CParticle@@QAEX_NMMMMMM0IMMAAU?$TVector3@M@@11P6AXPAV1@MI@ZP6AX2M@Z@Z 00415b80 f   particles.obj
 0001:00014c50       ?Update@CParticle@@QAEXM@Z 00415c50 f   particles.obj
 0001:00014d90       ?RGBAVector@?$TColor4@M@@QBEPBMXZ 00415d90 f i particles.obj
 0001:00014dc0       ?SetColor@?$TColor4@M@@QAEXMMMM@Z 00415dc0 f i particles.obj
 0001:00014e10       _tgaCheckSize              00415e10 f   tga.obj
 0001:00014e80       _tgaGetRGBA                00415e80 f   tga.obj
 0001:00014f80       _tgaGetRGB                 00415f80 f   tga.obj
 0001:00015080       _tgaGetGray                00416080 f   tga.obj
 0001:00015120       _tgaGetData                00416120 f   tga.obj
 0001:000151a0       _tgaReturnError            004161a0 f   tga.obj
 0001:000151f0       _tgaLoad                   004161f0 f   tga.obj
 0001:00015690       ?carry@aiMinor@@IAEXAAVaiObject@@@Z 00416690 f   AI_ants.obj
 0001:00015700       ?drop_carried@aiMinor@@IAEXXZ 00416700 f   AI_ants.obj
 0001:000157b0       ?sector_at@aiWorld@@QBEAAVaiSector@@ABU?$TVector2@M@@@Z 004167b0 f i AI_ants.obj
 0001:00015840       ?indexes_of_sector_at@aiWorld@@QBE?AU?$TVector2@I@@ABU?$TVector2@M@@@Z 00416840 f i AI_ants.obj
 0001:000158f0       ?sector_at@aiWorld@@QBEAAVaiSector@@ABU?$TVector2@I@@@Z 004168f0 f i AI_ants.obj
 0001:00015940       ?sector_at@aiWorld@@QBEAAVaiSector@@HH@Z 00416940 f i AI_ants.obj
 0001:00015990       ?coords2d@aiObject@@IBEAAU?$TVector2@M@@XZ 00416990 f i AI_ants.obj
 0001:000159c0       ?get_coords2d@aiObject@@QBEABU?$TVector2@M@@XZ 004169c0 f i AI_ants.obj
 0001:00015a00       ?coords2d@aiGraphicObject@@QAEAAU?$TVector2@M@@XZ 00416a00 f i AI_ants.obj
 0001:00015a30       ?there_is_food_on_sector@aiMinor@@QBE_NAAVaiSector@@@Z 00416a30 f   AI_ants.obj
 0001:00015ad0       ?current_stuff@aiSector@@QBEAAVaiObject@@XZ 00416ad0 f i AI_ants.obj
 0001:00015b10       ?get_number_of_stuff@aiSector@@QBEIXZ 00416b10 f i AI_ants.obj
 0001:00015b50       ?next_stuff@aiSector@@QAEXXZ 00416b50 f i AI_ants.obj
 0001:00015b90       ?is_active@aiObject@@QBE_NXZ 00416b90 f i AI_ants.obj
 0001:00015be0       ?is_food@aiMinor@@QBE_NABVaiObject@@@Z 00416be0 f i AI_ants.obj
 0001:00015c30       ?there_is_food_within_range@aiMinor@@QAE_NXZ 00416c30 f   AI_ants.obj
 0001:00015d30       ?token_tendency@aiMinor@@QAE?AU?$TVector2@M@@W4token_t@@@Z 00416d30 f   AI_ants.obj
 0001:00015eb0       ??0aiToken@@QAE@XZ         00416eb0 f i AI_ants.obj
 0001:00015f00       ?add@aiToken@@QAEXIABU?$TVector2@M@@@Z 00416f00 f i AI_ants.obj
 0001:00016000       ?transform_vector@aiWorld@@QBEAAU?$TVector2@M@@AAU2@@Z 00417000 f i AI_ants.obj
 0001:00016160       ??1aiToken@@QAE@XZ         00417160 f i AI_ants.obj
 0001:000161a0       ?token_tendency_in_that_way@aiMinor@@QAE?AU?$TVector2@M@@W4token_t@@ABU2@@Z 004171a0 f   AI_ants.obj
 0001:00016360       ?dot_product@@YAMABU?$TVector2@M@@0@Z 00417360 f i AI_ants.obj
 0001:000163a0       ?live@aiMinor@@MAEXXZ      004173a0 f   AI_ants.obj
 0001:00016440       ?gain_token@aiWorld@@QAEXAAVaiSector@@W4token_t@@IABU?$TVector2@M@@@Z 00417440 f i AI_ants.obj
 0001:000164c0       ?live@aiAnt@@MAEXXZ        004174c0 f i AI_ants.obj
 0001:00016500       ?live@aiLivingBeing@@UAEXXZ 00417500 f i AI_ants.obj
 0001:00016530       ?is_hungry@aiMinor@@QBE_NXZ 00417530 f i AI_ants.obj
 0001:00016570       ?most_valuable_carriable_food_on_the_sector@aiMinor@@IBEPAVaiFood@@XZ 00417570 f   AI_ants.obj
 0001:00016660       ?get_value@aiFood@@QBEIXZ  00417660 f i AI_ants.obj
 0001:00016690       ?get_weight@aiFood@@QBEIXZ 00417690 f i AI_ants.obj
 0001:000166c0       ?get_carriable_weight@aiMinor@@QBEIXZ 004176c0 f i AI_ants.obj
 0001:000166f0       ?food_tendency_within_range_in_the_way@aiMinor@@QBE?AU?$TVector2@M@@XZ 004176f0 f   AI_ants.obj
 0001:00016910       ?nearest_nest_entrance_direction@aiMinor@@QBE?AU?$TVector2@M@@XZ 00417910 f   AI_ants.obj
 0001:00016ad0       ?get_coords2d@aiNestEntrance@@QBEABU?$TVector2@M@@XZ 00417ad0 f i AI_ants.obj
 0001:00016b00       ?get_number_of_entrances@aiNest@@QBEIXZ 00417b00 f i AI_ants.obj
 0001:00016b40       ?current_entrance@aiNest@@QBEAAVaiNestEntrance@@XZ 00417b40 f i AI_ants.obj
 0001:00016b80       ?next_entrance@aiNest@@QAEXXZ 00417b80 f i AI_ants.obj
 0001:00016bc0       ?nest@aiAnt@@IBEAAVaiNest@@XZ 00417bc0 f i AI_ants.obj
 0001:00016bf0       ?die@aiMinor@@MAEXXZ       00417bf0 f   AI_ants.obj
 0001:00016c50       ?die@aiLivingBeing@@UAEXXZ 00417c50 f i AI_ants.obj
 0001:00016c90       ?vanish@aiObject@@IAEXXZ   00417c90 f i AI_ants.obj
 0001:00016d00       ??1aiMinor@@UAE@XZ         00417d00 f   AI_ants.obj
 0001:00016d80       ?ai_update@aiLivingBeing@@UAEXXZ 00417d80 f i AI_ants.obj
 0001:00016df0       ??RaiCounter@@QAE_NXZ      00417df0 f i AI_ants.obj
 0001:00016e40       ?ai_update@aiObject@@UAEXXZ 00417e40 f i AI_ants.obj
 0001:00016e80       ?is_alive@aiLivingBeing@@QBE_NXZ 00417e80 f i AI_ants.obj
 0001:00016ec0       ??1aiAnt@@MAE@XZ           00417ec0 f i AI_ants.obj
 0001:00016f00       ??1aiLivingBeing@@UAE@XZ   00417f00 f i AI_ants.obj
 0001:00016f40       ??1aiObject@@UAE@XZ        00417f40 f i AI_ants.obj
 0001:00016fb0       ??_EaiObject@@UAEPAXI@Z    00417fb0 f i AI_ants.obj
 0001:00016fb0       ??_GaiObject@@UAEPAXI@Z    00417fb0 f i AI_ants.obj
 0001:00017010       ?graphic_update@aiObject@@UAEXXZ 00418010 f i AI_ants.obj
 0001:00017040       ??_GaiGraphicObject@@QAEPAXI@Z 00418040 f i AI_ants.obj
 0001:000170a0       ??1aiGraphicObject@@QAE@XZ 004180a0 f i AI_ants.obj
 0001:00017120       ??1C3DObjElements@@QAE@XZ  00418120 f i AI_ants.obj
 0001:000171c0       ??_EaiAnt@@MAEPAXI@Z       004181c0 f i AI_ants.obj
 0001:000171c0       ??_GaiAnt@@MAEPAXI@Z       004181c0 f i AI_ants.obj
 0001:00017220       ??_GaiMinor@@UAEPAXI@Z     00418220 f i AI_ants.obj
 0001:00017220       ??_EaiMinor@@UAEPAXI@Z     00418220 f i AI_ants.obj
 0001:00017280       ??0aiHarvester@@QAE@AAVaiWorld@@ABU?$TVector2@M@@I@Z 00418280 f   AI_ants.obj
 0001:000173f0       ?get_id@aiHarvester@@EBE?AW4aiID_t@@XZ 004183f0 f i AI_ants.obj
 0001:00017420       ?color_on_minimap@aiHarvester@@UBE?AUcolorRGBA@@XZ 00418420 f i AI_ants.obj
 0001:00017470       ??0colorRGBA@@QAE@MMMM@Z   00418470 f i AI_ants.obj
 0001:000174c0       ??_GaiHarvester@@UAEPAXI@Z 004184c0 f i AI_ants.obj
 0001:000174c0       ??_EaiHarvester@@UAEPAXI@Z 004184c0 f i AI_ants.obj
 0001:00017520       ??1aiHarvester@@UAE@XZ     00418520 f i AI_ants.obj
 0001:00017560       ??0aiMinor@@QAE@AAVaiWorld@@ABU?$TVector2@M@@I@Z 00418560 f i AI_ants.obj
 0001:00017600       ??0aiAnt@@IAE@AAVaiWorld@@ABU?$TVector2@M@@I@Z 00418600 f i AI_ants.obj
 0001:00017660       ??0aiLivingBeing@@QAE@AAVaiWorld@@ABU?$TVector2@M@@I@Z 00418660 f i AI_ants.obj
 0001:00017700       ??0aiCounter@@QAE@I_N@Z    00418700 f i AI_ants.obj
 0001:000177a0       ??0aiObject@@IAE@AAVaiWorld@@ABU?$TVector2@M@@@Z 004187a0 f i AI_ants.obj
 0001:00017840       ??_GaiLivingBeing@@UAEPAXI@Z 00418840 f i AI_ants.obj
 0001:00017840       ??_EaiLivingBeing@@UAEPAXI@Z 00418840 f i AI_ants.obj
 0001:000178a0       ?live@aiHarvester@@MAEXXZ  004188a0 f   AI_ants.obj
 0001:00017970       ?do_idle@aiHarvester@@IAEXXZ 00418970 f   AI_ants.obj
 0001:000179b0       ?now_do@aiObject@@IAEXW4action_type@@I@Z 004189b0 f i AI_ants.obj
 0001:00017a10       ?do_put_food_in_the_granary@aiHarvester@@IAEXXZ 00418a10 f   AI_ants.obj
 0001:00017ab0       ?add_to_food_stock@aiNest@@QAEXPAVaiFood@@@Z 00418ab0 f i AI_ants.obj
 0001:00017b00       ?do_get_out_of_the_nest@aiHarvester@@IAEXXZ 00418b00 f   AI_ants.obj
 0001:00017b70       ?random_entrance@aiNest@@QAEAAVaiNestEntrance@@XZ 00418b70 f i AI_ants.obj
 0001:00017c10       ?do_wander_around_nest_waiting_for_found_food_pheromone@aiHarvester@@IAEXXZ 00418c10 f   AI_ants.obj
 0001:00018090       ?get_coords2d@aiNest@@QBEABU?$TVector2@M@@XZ 00419090 f i AI_ants.obj
 0001:000180c0       ?hypothethic_nest_direction@aiMinor@@QBE?AU?$TVector2@M@@XZ 004190c0 f i AI_ants.obj
 0001:00018240       ?get_size@aiWorld@@QBEIXZ  00419240 f i AI_ants.obj
 0001:00018270       ?secret_token@aiMinor@@IBEXW4token_t@@I@Z 00419270 f i AI_ants.obj
 0001:000182d0       ?do_follow_found_food_pheromone_to_find_food@aiHarvester@@IAEXXZ 004192d0 f   AI_ants.obj
 0001:00018530       ?do_go_back_to_the_nest_looking_for_food@aiHarvester@@IAEXXZ 00419530 f   AI_ants.obj
 0001:00018890       ?get_width@aiNest@@QBEMXZ  00419890 f i AI_ants.obj
 0001:000188c0       ?do_bring_found_food_to_the_nest@aiHarvester@@IAEXXZ 004198c0 f   AI_ants.obj
 0001:00018a10       ?distance@aiWorld@@QBEMABU?$TVector2@M@@0@Z 00419a10 f i AI_ants.obj
 0001:00018aa0       ?do_enter_the_nest_to_store_food@aiHarvester@@IAEXXZ 00419aa0 f   AI_ants.obj
 0001:00018b60       ??0aiScout@@QAE@AAVaiWorld@@ABU?$TVector2@M@@I@Z 00419b60 f   AI_ants.obj
 0001:00018cd0       ?get_id@aiScout@@EBE?AW4aiID_t@@XZ 00419cd0 f i AI_ants.obj
 0001:00018d00       ?color_on_minimap@aiScout@@UBE?AUcolorRGBA@@XZ 00419d00 f i AI_ants.obj
 0001:00018d50       ??_GaiScout@@UAEPAXI@Z     00419d50 f i AI_ants.obj
 0001:00018d50       ??_EaiScout@@UAEPAXI@Z     00419d50 f i AI_ants.obj
 0001:00018db0       ??1aiScout@@UAE@XZ         00419db0 f i AI_ants.obj
 0001:00018df0       ?live@aiScout@@MAEXXZ      00419df0 f   AI_ants.obj
 0001:00018e60       ?do_idle@aiScout@@IAEXXZ   00419e60 f   AI_ants.obj
 0001:00018ea0       ?do_look_for_a_new_source_of_food@aiScout@@IAEXXZ 00419ea0 f   AI_ants.obj
 0001:000190e0       ?do_return_to_nest_with_info_about_food@aiScout@@IAEXXZ 0041a0e0 f   AI_ants.obj
 0001:00019280       ??4?$TVector2@M@@QAEAAU0@ABM@Z 0041a280 f i AI_ants.obj
 0001:000192c0       ??R?$TVector2@M@@QBEIXZ    0041a2c0 f i AI_ants.obj
 0001:00019320       ??G?$TVector2@M@@QBE?AU0@ABU0@@Z 0041a320 f i AI_ants.obj
 0001:00019390       ??G?$TVector2@M@@QBE?AU0@XZ 0041a390 f i AI_ants.obj
 0001:00019400       ??D?$TVector2@M@@QBE?AU0@M@Z 0041a400 f i AI_ants.obj
 0001:00019470       ??Y?$TVector2@M@@QAEAAU0@ABU0@@Z 0041a470 f i AI_ants.obj
 0001:000194c0       ??X?$TVector2@M@@QAEAAU0@M@Z 0041a4c0 f i AI_ants.obj
 0001:00019510       ??4?$TVector2@M@@QAEAAU0@ABU0@@Z 0041a510 f i AI_ants.obj
 0001:00019550       ?Sqr@?$TVector2@M@@QBEMXZ  0041a550 f i AI_ants.obj
 0001:00019590       ?Norm@?$TVector2@M@@QBEMXZ 0041a590 f i AI_ants.obj
 0001:000195f0       ?DotProd@?$TVector2@M@@QBEMABU1@@Z 0041a5f0 f i AI_ants.obj
 0001:00019630       ?Normalize@?$TVector2@M@@QAEAAU1@XZ 0041a630 f i AI_ants.obj
 0001:000196a0       ??0?$TVector2@I@@QAE@II@Z  0041a6a0 f i AI_ants.obj
 0001:000196e0       ??1?$TVector2@I@@QAE@XZ    0041a6e0 f i AI_ants.obj
 0001:00019710       ?current@?$aiRing@VaiObject@@@@QBEPAVaiObject@@XZ 0041a710 f i AI_ants.obj
 0001:00019740       ?get_size@?$aiRing@VaiObject@@@@QBEIXZ 0041a740 f i AI_ants.obj
 0001:00019770       ?next@?$aiRing@VaiObject@@@@QAEXXZ 0041a770 f i AI_ants.obj
 0001:000197b0       ?add@?$aiRing@UaiToken@@@@QAEXAAUaiToken@@@Z 0041a7b0 f i AI_ants.obj
 0001:00019890       ?current@?$aiRing@VaiNestEntrance@@@@QBEPAVaiNestEntrance@@XZ 0041a890 f i AI_ants.obj
 0001:000198c0       ?get_size@?$aiRing@VaiNestEntrance@@@@QBEIXZ 0041a8c0 f i AI_ants.obj
 0001:000198f0       ?next@?$aiRing@VaiNestEntrance@@@@QAEXXZ 0041a8f0 f i AI_ants.obj
 0001:00019930       ??0Link@?$aiRing@UaiToken@@@@QAE@PAU01@AAUaiToken@@@Z 0041a930 f i AI_ants.obj
 0001:00019b70       ??0aiSpider@@QAE@AAVaiWorld@@ABU?$TVector2@M@@I@Z 0041ab70 f   AI_enemies.obj
 0001:00019d00       ?color_on_minimap@aiSpider@@MBE?AUcolorRGBA@@XZ 0041ad00 f i AI_enemies.obj
 0001:00019d50       ?get_id@aiSpider@@EBE?AW4aiID_t@@XZ 0041ad50 f i AI_enemies.obj
 0001:00019d80       ??_GaiSpider@@MAEPAXI@Z    0041ad80 f i AI_enemies.obj
 0001:00019d80       ??_EaiSpider@@MAEPAXI@Z    0041ad80 f i AI_enemies.obj
 0001:00019de0       ?live@aiSpider@@MAEXXZ     0041ade0 f   AI_enemies.obj
 0001:00019e40       ?do_idle@aiSpider@@AAEXXZ  0041ae40 f   AI_enemies.obj
 0001:00019e80       ?do_hunt_ants@aiSpider@@AAEXXZ 0041ae80 f   AI_enemies.obj
 0001:00019fa0       ??1aiSpider@@MAE@XZ        0041afa0 f   AI_enemies.obj
 0001:0001a420       ??0aiGraphicObject@@QAE@ABVC3DObjElements@@PAVCMap@@ABU?$TVector2@M@@M@Z 0041b420 f   AI_graphic_objects.obj
 0001:0001a4f0       ??0C3DObjElements@@QAE@XZ  0041b4f0 f i AI_graphic_objects.obj
 0001:0001a530       ??4C3DObjElements@@QAEAAV0@ABV0@@Z 0041b530 f i AI_graphic_objects.obj
 0001:0001a650       ?take_object@aiGraphicObject@@QAEXAAU1@@Z 0041b650 f   AI_graphic_objects.obj
 0001:0001a6c0       ?drop_object@aiGraphicObject@@QAEXAAU1@@Z 0041b6c0 f   AI_graphic_objects.obj
 0001:0001a730       ?select_from_camera@aiGraphicObject@@QAE_NABU?$TVector3@M@@0@Z 0041b730 f   AI_graphic_objects.obj
 0001:0001a880       ?GetBoundingSphere@C3DObjElement@@QAEAAMXZ 0041b880 f i AI_graphic_objects.obj
 0001:0001a8b0       ??0?$TVector3@M@@QAE@ABU?$TVector2@M@@M@Z 0041b8b0 f i AI_graphic_objects.obj
 0001:0001ab00       ??0aiNest@@QAE@AAVaiWorld@@ABU?$TVector2@M@@M@Z 0041bb00 f   AI_nest.obj
 0001:0001abb0       ??0aiNestEntrance@@QAE@ABU?$TVector2@M@@@Z 0041bbb0 f   AI_nest.obj
 0001:0001abf0       ?ai_update@aiNest@@QAEXXZ  0041bbf0 f   AI_nest.obj
 0001:0001af00       ?add_object@aiWorld@@QAEXAAVaiObject@@@Z 0041bf00 f i AI_nest.obj
 0001:0001af40       ??0aiNestBaby@@QAE@W4aiID_t@@@Z 0041bf40 f i AI_nest.obj
 0001:0001af80       ?next_baby@aiNest@@QAEXXZ  0041bf80 f i AI_nest.obj
 0001:0001afc0       ?delete_current_baby@aiNest@@QAEXXZ 0041bfc0 f i AI_nest.obj
 0001:0001b000       ?needs_a_harvester@aiNest@@QBE_NXZ 0041c000 f   AI_nest.obj
 0001:0001b070       ?needs_a_scout@aiNest@@QBE_NXZ 0041c070 f   AI_nest.obj
 0001:0001b0e0       ??1aiNestEntrance@@QAE@XZ  0041c0e0 f   AI_nest.obj
 0001:0001b120       ?GetSingleton@?$TSingleton@VCSoundManager@@@@SAAAVCSoundManager@@XZ 0041c120 f i AI_nest.obj
 0001:0001b190       ??0?$aiRing@VaiNestEntrance@@@@QAE@XZ 0041c190 f i AI_nest.obj
 0001:0001b1e0       ??1?$aiRing@VaiNestEntrance@@@@QAE@XZ 0041c1e0 f i AI_nest.obj
 0001:0001b220       ??0?$aiRing@UaiNestBaby@@@@QAE@XZ 0041c220 f i AI_nest.obj
 0001:0001b270       ?add@?$aiRing@UaiNestBaby@@@@QAEXAAUaiNestBaby@@@Z 0041c270 f i AI_nest.obj
 0001:0001b350       ?delete_current@?$aiRing@UaiNestBaby@@@@QAEXXZ 0041c350 f i AI_nest.obj
 0001:0001b3a0       ?current@?$aiRing@UaiNestBaby@@@@QBEPAUaiNestBaby@@XZ 0041c3a0 f i AI_nest.obj
 0001:0001b3d0       ?get_size@?$aiRing@UaiNestBaby@@@@QBEIXZ 0041c3d0 f i AI_nest.obj
 0001:0001b400       ?next@?$aiRing@UaiNestBaby@@@@QAEXXZ 0041c400 f i AI_nest.obj
 0001:0001b440       ?add@?$aiRing@VaiObject@@@@QAEXAAVaiObject@@@Z 0041c440 f i AI_nest.obj
 0001:0001b520       ??0Link@?$aiRing@UaiNestBaby@@@@QAE@PAU01@AAUaiNestBaby@@@Z 0041c520 f i AI_nest.obj
 0001:0001b560       ??0Link@?$aiRing@VaiObject@@@@QAE@PAU01@AAVaiObject@@@Z 0041c560 f i AI_nest.obj
 0001:0001b5a0       ?remove_current@?$aiRing@VaiNestEntrance@@@@QAEXXZ 0041c5a0 f i AI_nest.obj
 0001:0001b650       ?remove_current@?$aiRing@UaiNestBaby@@@@QAEXXZ 0041c650 f i AI_nest.obj
 0001:0001b900       ?teleport_to@aiObject@@IAEXABU?$TVector2@M@@@Z 0041c900 f   AI_objects.obj
 0001:0001b9e0       ?fix_coords@aiWorld@@QBEXAAU?$TVector2@M@@@Z 0041c9e0 f i AI_objects.obj
 0001:0001baf0       ?lose_hp@aiLivingBeing@@IAEXI@Z 0041caf0 f   AI_objects.obj
 0001:0001bd50       ??0aiGraphicWorld@@QAE@AAVaiWorld@@@Z 0041cd50 f   AI_renders.obj
 0001:0001be30       ??0colorRGBA@@QAE@XZ       0041ce30 f i AI_renders.obj
 0001:0001be80       ?set_token_RGBA_color@aiGraphicWorld@@QAEXW4token_t@@ABUcolorRGBA@@@Z 0041ce80 f i AI_renders.obj
 0001:0001bed0       ??_H@YGXPAXIHP6EX0@Z@Z     0041ced0 f i AI_renders.obj
 0001:0001bf30       ?render@aiGraphicWorld@@QAEXXZ 0041cf30 f   AI_renders.obj
 0001:0001c020       ?ViewMode@CCamera@@QAE?AW4CModeCamera@@XZ 0041d020 f i AI_renders.obj
 0001:0001c050       ?render_highlighted_object@aiGraphicWorld@@QAEXXZ 0041d050 f   AI_renders.obj
 0001:0001c270       ?ScrollingOffset@CMap@@QAE?AU?$TVector2@M@@ABU2@@Z 0041d270 f i AI_renders.obj
 0001:0001c440       ?ScrollLimitf@CMap@@QBE?AU?$TVector2@M@@XZ 0041d440 f i AI_renders.obj
 0001:0001c4a0       ?FrameSize@CMap@@QBE?BU?$TVector2@M@@XZ 0041d4a0 f i AI_renders.obj
 0001:0001c500       ?Get_Map_Size@CMap@@QAEIXZ 0041d500 f i AI_renders.obj
 0001:0001c530       ?render_tokens_in_scroll_view@aiGraphicWorld@@QAEXXZ 0041d530 f   AI_renders.obj
 0001:0001c980       ?visible_in_scrolling_view@aiWorld@@QBE_NABU?$TVector2@M@@@Z 0041d980 f i AI_renders.obj
 0001:0001cc60       ?next_token@aiWorld@@QAEXW4token_t@@@Z 0041dc60 f i AI_renders.obj
 0001:0001ccd0       ?get_number_of_tokens@aiWorld@@QBEIW4token_t@@@Z 0041dcd0 f i AI_renders.obj
 0001:0001cd20       ?current_token@aiWorld@@QBEAAUaiToken@@W4token_t@@@Z 0041dd20 f i AI_renders.obj
 0001:0001cd70       ?get_token_texture_id@aiGraphicWorld@@QBEIXZ 0041dd70 f i AI_renders.obj
 0001:0001cda0       ?get_rendered_token_RGBA_color@aiGraphicWorld@@QBEABUcolorRGBA@@XZ 0041dda0 f i AI_renders.obj
 0001:0001cde0       ?get_rendered_token@aiGraphicWorld@@QBEHXZ 0041dde0 f i AI_renders.obj
 0001:0001ce10       ?render_every_object_on_minimap@aiGraphicWorld@@QAEXXZ 0041de10 f   AI_renders.obj
 0001:0001d070       ?next_object@aiWorld@@QAEXXZ 0041e070 f i AI_renders.obj
 0001:0001d0b0       ?get_number_of_objects@aiWorld@@QBEIXZ 0041e0b0 f i AI_renders.obj
 0001:0001d0f0       ?current_object@aiWorld@@QBEAAVaiObject@@XZ 0041e0f0 f i AI_renders.obj
 0001:0001d130       ?reload_token_texture@aiGraphicWorld@@QAEXXZ 0041e130 f   AI_renders.obj
 0001:0001d1b0       ??1aiGraphicWorld@@QAE@XZ  0041e1b0 f   AI_renders.obj
 0001:0001d1f0       ?render@aiGraphicObject@@QAEXXZ 0041e1f0 f   AI_renders.obj
 0001:0001d3c0       ?get_distance_from_bee_camera@aiGraphicObject@@QBEMXZ 0041e3c0 f i AI_renders.obj
 0001:0001d480       ?get_coords2d@aiGraphicObject@@QBEABU?$TVector2@M@@XZ 0041e480 f i AI_renders.obj
 0001:0001d4b0       ?Position@CCamera@@QAE?AU?$TVector3@M@@XZ 0041e4b0 f i AI_renders.obj
 0001:0001d510       ?add_anims_link@@YAXW4action_type@@0III@Z 0041e510 f   AI_renders.obj
 0001:0001d5d0       ??0AnimsLink@@QAE@III@Z    0041e5d0 f i AI_renders.obj
 0001:0001d620       ??0AnimsCell@@QAE@W4action_type@@ABUAnimsLink@@PAU0@@Z 0041e620 f i AI_renders.obj
 0001:0001d680       ?add_anims_link@@YAXW4action_type@@0II@Z 0041e680 f   AI_renders.obj
 0001:0001d740       ?get_anims_link@@YAABUAnimsLink@@W4action_type@@0@Z 0041e740 f   AI_renders.obj
 0001:0001d7f0       ??0AnimsLink@@QAE@XZ       0041e7f0 f i AI_renders.obj
 0001:0001d860       ?create_animations_links@@YAXXZ 0041e860 f   AI_renders.obj
 0001:0001da00       ?delete_animations_links@@YAXXZ 0041ea00 f   AI_renders.obj
 0001:0001da80       ?update_animation@aiGraphicObject@@QAEXW4action_type@@0@Z 0041ea80 f   AI_renders.obj
 0001:0001db00       ?graphic_update@aiRock@@UAEXXZ 0041eb00 f   AI_renders.obj
 0001:0001db40       ?graphic_update@aiFood@@UAEXXZ 0041eb40 f   AI_renders.obj
 0001:0001db80       ?graphic_update@aiSeed@@UAEXXZ 0041eb80 f   AI_renders.obj
 0001:0001dbc0       ?graphic_update@aiLivingBeing@@UAEXXZ 0041ebc0 f   AI_renders.obj
 0001:0001dc00       ?graphic_update@aiAnt@@UAEXXZ 0041ec00 f   AI_renders.obj
 0001:0001dc40       ?graphic_update@aiMinor@@UAEXXZ 0041ec40 f   AI_renders.obj
 0001:0001dd40       ?deg_angle@@YAMABU?$TVector2@M@@@Z 0041ed40 f i AI_renders.obj
 0001:0001dd80       ?rad_angle@@YAMABU?$TVector2@M@@@Z 0041ed80 f i AI_renders.obj
 0001:0001ddf0       ?get_destination@aiMinor@@QBEABU?$TVector2@M@@XZ 0041edf0 f i AI_renders.obj
 0001:0001de20       ?get_speed@aiMinor@@QBEMXZ 0041ee20 f i AI_renders.obj
 0001:0001de50       ?graphic_update@aiHarvester@@UAEXXZ 0041ee50 f   AI_renders.obj
 0001:0001de90       ?graphic_update@aiScout@@UAEXXZ 0041ee90 f   AI_renders.obj
 0001:0001ded0       ?graphic_update@aiSpider@@UAEXXZ 0041eed0 f   AI_renders.obj
 0001:0001dfd0       ?get_speed@aiSpider@@IBEMXZ 0041efd0 f i AI_renders.obj
 0001:0001e000       ?get_destination@aiSpider@@IBEABU?$TVector2@M@@XZ 0041f000 f i AI_renders.obj
 0001:0001e030       ?graphic_update@aiVegetable@@UAEXXZ 0041f030 f   AI_renders.obj
 0001:0001e060       ?render_in_scroll_view@aiNest@@QAEXXZ 0041f060 f   AI_renders.obj
 0001:0001e240       ?render_in_bee_view@aiNest@@QAEXXZ 0041f240 f   AI_renders.obj
 0001:0001e270       ??H?$TVector2@M@@QBE?AU0@ABU0@@Z 0041f270 f i AI_renders.obj
 0001:0001e2e0       ?remove_current@?$aiRing@UaiToken@@@@QAEXXZ 0041f2e0 f i AI_renders.obj
 0001:0001e390       ?current@?$aiRing@UaiToken@@@@QBEPAUaiToken@@XZ 0041f390 f i AI_renders.obj
 0001:0001e3c0       ?get_size@?$aiRing@UaiToken@@@@QBEIXZ 0041f3c0 f i AI_renders.obj
 0001:0001e3f0       ?next@?$aiRing@UaiToken@@@@QAEXXZ 0041f3f0 f i AI_renders.obj
 0001:0001e630       ?render_in_menu@aiObject@@UAEXXZ 0041f630 f   AI_renders_in_menu.obj
 0001:0001e690       ?render_in_menu@aiRock@@UAEXXZ 0041f690 f   AI_renders_in_menu.obj
 0001:0001e710       ?render_in_menu@aiFood@@UAEXXZ 0041f710 f   AI_renders_in_menu.obj
 0001:0001e750       ?render_in_menu@aiSeed@@UAEXXZ 0041f750 f   AI_renders_in_menu.obj
 0001:0001e7d0       ?render_in_menu@aiLivingBeing@@UAEXXZ 0041f7d0 f   AI_renders_in_menu.obj
 0001:0001e8b0       ?get_hp@aiLivingBeing@@QBEIXZ 0041f8b0 f i AI_renders_in_menu.obj
 0001:0001e8e0       ?render_in_menu@aiAnt@@UAEXXZ 0041f8e0 f   AI_renders_in_menu.obj
 0001:0001e920       ?render_in_menu@aiMinor@@UAEXXZ 0041f920 f   AI_renders_in_menu.obj
 0001:0001e960       ?render_in_menu@aiHarvester@@UAEXXZ 0041f960 f   AI_renders_in_menu.obj
 0001:0001e9e0       ?render_in_menu@aiScout@@UAEXXZ 0041f9e0 f   AI_renders_in_menu.obj
 0001:0001ea60       ?render_in_menu@aiSpider@@MAEXXZ 0041fa60 f   AI_renders_in_menu.obj
 0001:0001eae0       ?render_in_menu@aiVegetable@@UAEXXZ 0041fae0 f   AI_renders_in_menu.obj
 0001:0001ef10       ?out_of_memory@@YAXXZ      0041ff10 f   AI_shared.obj
 0001:0001ef80       ?throw_warning@@YAXV?$basic_string@DV?$char_traits@D@_STL@@V?$allocator@D@2@@_STL@@@Z 0041ff80 f   AI_shared.obj
 0001:0001f070       ?throw_error@@YAXV?$basic_string@DV?$char_traits@D@_STL@@V?$allocator@D@2@@_STL@@@Z 00420070 f   AI_shared.obj
 0001:0001f180       ??H_STL@@YA?AV?$basic_string@DV?$char_traits@D@_STL@@V?$allocator@D@2@@0@PBDABV10@@Z 00420180 f i AI_shared.obj
 0001:0001f2c0       ??H_STL@@YA?AV?$basic_string@DV?$char_traits@D@_STL@@V?$allocator@D@2@@0@ABV10@D@Z 004202c0 f i AI_shared.obj
 0001:0001f3e0       ??5_STL@@YAAAV?$basic_istream@DV?$char_traits@D@_STL@@@0@AAV10@AAV?$basic_string@DV?$char_traits@D@_STL@@V?$allocator@D@2@@0@@Z 004203e0 f i AI_shared.obj
 0001:0001f890       ?init_world@@YAXAAPAVaiWorld@@V?$basic_string@DV?$char_traits@D@_STL@@V?$allocator@D@2@@_STL@@AAUMap_Settings@@@Z 00420890 f   AI_world.obj
 0001:00021590       ?vPositionCamera@CCamera@@QAEXABU?$TVector3@M@@@Z 00422590 f i AI_world.obj
 0001:000215d0       ??0aiWeed@@QAE@AAVaiWorld@@ABU?$TVector2@M@@M@Z 004225d0 f i AI_world.obj
 0001:00021720       ??0aiVegetable@@QAE@AAVaiWorld@@ABU?$TVector2@M@@IM@Z 00422720 f i AI_world.obj
 0001:00021780       ??_GaiVegetable@@UAEPAXI@Z 00422780 f i AI_world.obj
 0001:00021780       ??_EaiVegetable@@UAEPAXI@Z 00422780 f i AI_world.obj
 0001:000217e0       ?color_on_minimap@aiVegetable@@UBE?AUcolorRGBA@@XZ 004227e0 f i AI_world.obj
 0001:00021830       ??1aiVegetable@@UAE@XZ     00422830 f i AI_world.obj
 0001:00021870       ??_EaiWeed@@UAEPAXI@Z      00422870 f i AI_world.obj
 0001:00021870       ??_GaiWeed@@UAEPAXI@Z      00422870 f i AI_world.obj
 0001:000218d0       ??1aiWeed@@UAE@XZ          004228d0 f i AI_world.obj
 0001:00021910       ?get_id@aiWeed@@EBE?AW4aiID_t@@XZ 00422910 f i AI_world.obj
 0001:00021940       ??0aiMushroom@@QAE@AAVaiWorld@@ABU?$TVector2@M@@M@Z 00422940 f i AI_world.obj
 0001:00021a50       ??_EaiMushroom@@UAEPAXI@Z  00422a50 f i AI_world.obj
 0001:00021a50       ??_GaiMushroom@@UAEPAXI@Z  00422a50 f i AI_world.obj
 0001:00021ab0       ??1aiMushroom@@UAE@XZ      00422ab0 f i AI_world.obj
 0001:00021af0       ?get_id@aiMushroom@@EBE?AW4aiID_t@@XZ 00422af0 f i AI_world.obj
 0001:00021b20       ??0aiRedFlower@@QAE@AAVaiWorld@@ABU?$TVector2@M@@M@Z 00422b20 f i AI_world.obj
 0001:00021c30       ??_GaiRedFlower@@UAEPAXI@Z 00422c30 f i AI_world.obj
 0001:00021c30       ??_EaiRedFlower@@UAEPAXI@Z 00422c30 f i AI_world.obj
 0001:00021c90       ??1aiRedFlower@@UAE@XZ     00422c90 f i AI_world.obj
 0001:00021cd0       ?get_id@aiRedFlower@@EBE?AW4aiID_t@@XZ 00422cd0 f i AI_world.obj
 0001:00021d00       ??0aiSeed@@QAE@AAVaiWorld@@ABU?$TVector2@M@@@Z 00422d00 f i AI_world.obj
 0001:00021e10       ??0aiFood@@QAE@AAVaiWorld@@ABU?$TVector2@M@@II@Z 00422e10 f i AI_world.obj
 0001:00021e70       ??_GaiFood@@UAEPAXI@Z      00422e70 f i AI_world.obj
 0001:00021e70       ??_EaiFood@@UAEPAXI@Z      00422e70 f i AI_world.obj
 0001:00021ed0       ??1aiFood@@UAE@XZ          00422ed0 f i AI_world.obj
 0001:00021f10       ??_EaiSeed@@UAEPAXI@Z      00422f10 f i AI_world.obj
 0001:00021f10       ??_GaiSeed@@UAEPAXI@Z      00422f10 f i AI_world.obj
 0001:00021f70       ?get_id@aiSeed@@EBE?AW4aiID_t@@XZ 00422f70 f i AI_world.obj
 0001:00021fa0       ?color_on_minimap@aiSeed@@UBE?AUcolorRGBA@@XZ 00422fa0 f i AI_world.obj
 0001:00021ff0       ??1aiSeed@@UAE@XZ          00422ff0 f i AI_world.obj
 0001:00022030       ?add_entrance@aiNest@@QAEXAAVaiNestEntrance@@@Z 00423030 f i AI_world.obj
 0001:00022070       ?done_world@@YAXAAPAVaiWorld@@@Z 00423070 f   AI_world.obj
 0001:000220e0       ??_GaiWorld@@QAEPAXI@Z     004230e0 f i AI_world.obj
 0001:00022140       ?reset_world@@YAXAAPAVaiWorld@@V?$basic_string@DV?$char_traits@D@_STL@@V?$allocator@D@2@@_STL@@AAUMap_Settings@@@Z 00423140 f   AI_world.obj
 0001:00022210       ??0aiSector@@QAE@XZ        00423210 f   AI_world.obj
 0001:000222a0       ?get@aiSector@@QAEXAAVaiObject@@@Z 004232a0 f   AI_world.obj
 0001:000222e0       ?lose@aiSector@@QAEXAAVaiObject@@@Z 004232e0 f   AI_world.obj
 0001:00022350       ?remove_stuff@aiSector@@QAEXXZ 00423350 f i AI_world.obj
 0001:00022390       ??1aiSector@@QAE@XZ        00423390 f   AI_world.obj
 0001:00022430       ??0aiWorld@@QAE@I@Z        00423430 f   AI_world.obj
 0001:00022630       ??0aiTime@@QAE@XZ          00423630 f i AI_world.obj
 0001:00022660       ??0CMap@@QAE@XZ            00423660 f i AI_world.obj
 0001:000226f0       ??0Map_Settings@@QAE@XZ    004236f0 f i AI_world.obj
 0001:00022770       ??1Map_Settings@@QAE@XZ    00423770 f i AI_world.obj
 0001:000227f0       ??0w_object@@QAE@XZ        004237f0 f i AI_world.obj
 0001:00022830       ??1w_object@@QAE@XZ        00423830 f i AI_world.obj
 0001:00022870       ??_EaiSector@@QAEPAXI@Z    00423870 f i AI_world.obj
 0001:00022910       ?update_sector@aiWorld@@QBEAAVaiSector@@AAV2@@Z 00423910 f   AI_world.obj
 0001:000229b0       ??RaiTime@@QBEABKXZ        004239b0 f i AI_world.obj
 0001:000229e0       ?get_time@aiWorld@@QBEABKXZ 004239e0 f i AI_world.obj
 0001:00022a20       ?ai_update@aiWorld@@QAEXXZ 00423a20 f   AI_world.obj
 0001:00022a80       ?change_sun_angle@aiWorld@@QBEXXZ 00423a80 f i AI_world.obj
 0001:00022b70       ?ai_update_every_object@aiWorld@@QAEXXZ 00423b70 f i AI_world.obj
 0001:00022c10       ?vanished@aiObject@@QBE_NXZ 00423c10 f i AI_world.obj
 0001:00022c40       ?delete_current_object@aiWorld@@QAEXXZ 00423c40 f i AI_world.obj
 0001:00022c80       ?inc_time@aiWorld@@QAEXXZ  00423c80 f i AI_world.obj
 0001:00022cc0       ??EaiTime@@QAEXXZ          00423cc0 f i AI_world.obj
 0001:00022d00       ?graphic_update_objects@aiWorld@@QAEXXZ 00423d00 f   AI_world.obj
 0001:00022db0       ?render_visible_objects_in_bee_view@aiWorld@@QAEXXZ 00423db0 f   AI_world.obj
 0001:00022e30       ?render@aiObject@@QAEXXZ   00423e30 f i AI_world.obj
 0001:00022e70       ?render_visible_objects_in_scroll_view@aiWorld@@QAEXXZ 00423e70 f   AI_world.obj
 0001:00022f10       ?render@aiWorld@@QAEXXZ    00423f10 f   AI_world.obj
 0001:00022f60       ??1aiWorld@@QAE@XZ         00423f60 f   AI_world.obj
 0001:000230d0       ??_GaiGraphicWorld@@QAEPAXI@Z 004240d0 f i AI_world.obj
 0001:00023130       ??_GCMap@@QAEPAXI@Z        00424130 f i AI_world.obj
 0001:00023190       ??1CMap@@QAE@XZ            00424190 f i AI_world.obj
 0001:00023370       ??_Gmenu@@QAEPAXI@Z        00424370 f i AI_world.obj
 0001:000233d0       ??_Gminimap@@QAEPAXI@Z     004243d0 f i AI_world.obj
 0001:00023430       ??_Evertex@@QAEPAXI@Z      00424430 f i AI_world.obj
 0001:000234d0       ??1vertex@@QAE@XZ          004244d0 f i AI_world.obj
 0001:00023540       ??_GaiNest@@QAEPAXI@Z      00424540 f i AI_world.obj
 0001:000235a0       ??1aiNest@@QAE@XZ          004245a0 f i AI_world.obj
 0001:00023660       ??0?$TVector2@H@@QAE@XZ    00424660 f i AI_world.obj
 0001:000236a0       ??1?$TVector2@H@@QAE@XZ    004246a0 f i AI_world.obj
 0001:000236d0       ??0?$aiRing@VaiObject@@@@QAE@XZ 004246d0 f i AI_world.obj
 0001:00023720       ?remove_current@?$aiRing@VaiObject@@@@QAEXXZ 00424720 f i AI_world.obj
 0001:000237d0       ?delete_current@?$aiRing@VaiObject@@@@QAEXXZ 004247d0 f i AI_world.obj
 0001:00023840       ??1?$aiRing@VaiObject@@@@QAE@XZ 00424840 f i AI_world.obj
 0001:00023880       ??0?$aiRing@UaiToken@@@@QAE@XZ 00424880 f i AI_world.obj
 0001:000238d0       ??1?$aiRing@UaiToken@@@@QAE@XZ 004248d0 f i AI_world.obj
 0001:00023910       ?add@?$aiRing@VaiNestEntrance@@@@QAEXAAVaiNestEntrance@@@Z 00424910 f i AI_world.obj
 0001:000239f0       ?delete_current@?$aiRing@VaiNestEntrance@@@@QAEXXZ 004249f0 f i AI_world.obj
 0001:00023a60       ??1?$aiRing@UaiNestBaby@@@@QAE@XZ 00424a60 f i AI_world.obj
 0001:00023aa0       ??_GaiNestEntrance@@QAEPAXI@Z 00424aa0 f i AI_world.obj
 0001:00023b00       ??0Link@?$aiRing@VaiNestEntrance@@@@QAE@PAU01@AAVaiNestEntrance@@@Z 00424b00 f i AI_world.obj
 0001:00023d40       ?Init@CMap@@QAEXUMap_Settings@@@Z 00424d40 f   CMap.obj
 0001:00024cf0       ??4Map_Settings@@QAEAAU0@ABU0@@Z 00425cf0 f i CMap.obj
 0001:00024dc0       ??0vertex@@QAE@XZ          00425dc0 f i CMap.obj
 0001:00024e40       ??4w_object@@QAEAAU0@ABU0@@Z 00425e40 f i CMap.obj
 0001:00024ee0       ?NormalizeMap@CMap@@QAEXXZ 00425ee0 f   CMap.obj
 0001:00025ca0       ?Height@CMap@@QAEMHH@Z     00426ca0 f i CMap.obj
 0001:00025d30       ?Render@CMap@@QAEXXZ       00426d30 f   CMap.obj
 0001:00026120       ?Render_every_faces@CMap@@QAEXXZ 00427120 f   CMap.obj
 0001:00026250       ?Renderface@CMap@@QAEXHH@Z 00427250 f i CMap.obj
 0001:00026350       ?Rendervertex@CMap@@QAEXH@Z 00427350 f i CMap.obj
 0001:000263e0       ?Render_faces_in_scroll_view@CMap@@QAEXXZ 004273e0 f   CMap.obj
 0001:00026660       ?LoadTextures@CMap@@QAEXXZ 00427660 f   CMap.obj
 0001:00026910       ?DeleteTextures@CMap@@QAEXXZ 00427910 f   CMap.obj
 0001:00026a90       ?SkyBox@CMap@@QAEXMMMMMM@Z 00427a90 f   CMap.obj
 0001:000271b0       ?RenderScrolling@CMap@@QAEXXZ 004281b0 f   CMap.obj
 0001:00027260       ?ScrollLimitXf@CMap@@QBEMXZ 00428260 f i CMap.obj
 0001:000272b0       ?ScrollLimitZf@CMap@@QBEMXZ 004282b0 f i CMap.obj
 0001:00027310       ?GetMapHeight@CMap@@QAEMAAU?$TVector2@M@@@Z 00428310 f   CMap.obj
 0001:000275a0       ?PutOnTheMap@CMap@@QAEXPAM000MU?$TVector2@M@@@Z 004285a0 f   CMap.obj
 0001:00027af0       ?CreateMinimap@CMap@@QAEXXZ 00428af0 f   CMap.obj
 0001:00027ce0       ??K?$TVector3@M@@QBE?AU0@M@Z 00428ce0 f i CMap.obj
 0001:00027d50       ??4?$TVector2@H@@QAEAAU0@ABU0@@Z 00428d50 f i CMap.obj
 0001:00027f90       _SDL_main                  00428f90 f   main.obj
 0001:00028b70       ??0CSoundManager@@QAE@XZ   00429b70 f i main.obj
 0001:00028c10       ??_GCSoundManager@@QAEPAXI@Z 00429c10 f i main.obj
 0001:00028c70       ??0?$map@IPAU_Mix_Music@@U?$less@I@_STL@@V?$allocator@U?$pair@$$CBIPAU_Mix_Music@@@_STL@@@3@@_STL@@QAE@XZ 00429c70 f i main.obj
 0001:00028d00       ?empty@?$map@IPAU_Mix_Music@@U?$less@I@_STL@@V?$allocator@U?$pair@$$CBIPAU_Mix_Music@@@_STL@@@3@@_STL@@QBE_NXZ 00429d00 f i main.obj
 0001:00028d40       ??0?$map@IPAUMix_Chunk@@U?$less@I@_STL@@V?$allocator@U?$pair@$$CBIPAUMix_Chunk@@@_STL@@@3@@_STL@@QAE@XZ 00429d40 f i main.obj
 0001:00028dd0       ?empty@?$map@IPAUMix_Chunk@@U?$less@I@_STL@@V?$allocator@U?$pair@$$CBIPAUMix_Chunk@@@_STL@@@3@@_STL@@QBE_NXZ 00429dd0 f i main.obj
 0001:00028e10       ??0?$TSingleton@VCSoundManager@@@@QAE@XZ 00429e10 f i main.obj
 0001:00028e90       ??0?$_Rb_tree@IU?$pair@$$CBIPAU_Mix_Music@@@_STL@@U?$_Select1st@U?$pair@$$CBIPAU_Mix_Music@@@_STL@@@2@U?$less@I@2@V?$allocator@U?$pair@$$CBIPAU_Mix_Music@@@_STL@@@2@@_STL@@QAE@ABU?$less@I@1@ABV?$allocator@U?$pair@$$CBIPAU_Mix_Music@@@_STL@@@1@@Z 00429e90 f i main.obj
 0001:00028f20       ?empty@?$_Rb_tree@IU?$pair@$$CBIPAU_Mix_Music@@@_STL@@U?$_Select1st@U?$pair@$$CBIPAU_Mix_Music@@@_STL@@@2@U?$less@I@2@V?$allocator@U?$pair@$$CBIPAU_Mix_Music@@@_STL@@@2@@_STL@@QBE_NXZ 00429f20 f i main.obj
 0001:00028f60       ??0?$allocator@U?$pair@$$CBIPAU_Mix_Music@@@_STL@@@_STL@@QAE@XZ 00429f60 f i main.obj
 0001:00028f90       ??0?$_Rb_tree@IU?$pair@$$CBIPAUMix_Chunk@@@_STL@@U?$_Select1st@U?$pair@$$CBIPAUMix_Chunk@@@_STL@@@2@U?$less@I@2@V?$allocator@U?$pair@$$CBIPAUMix_Chunk@@@_STL@@@2@@_STL@@QAE@ABU?$less@I@1@ABV?$allocator@U?$pair@$$CBIPAUMix_Chunk@@@_STL@@@1@@Z 00429f90 f i main.obj
 0001:00029020       ?empty@?$_Rb_tree@IU?$pair@$$CBIPAUMix_Chunk@@@_STL@@U?$_Select1st@U?$pair@$$CBIPAUMix_Chunk@@@_STL@@@2@U?$less@I@2@V?$allocator@U?$pair@$$CBIPAUMix_Chunk@@@_STL@@@2@@_STL@@QBE_NXZ 0042a020 f i main.obj
 0001:00029060       ??0?$allocator@U?$pair@$$CBIPAUMix_Chunk@@@_STL@@@_STL@@QAE@XZ 0042a060 f i main.obj
 0001:00029090       ?_M_empty_initialize@?$_Rb_tree@IU?$pair@$$CBIPAU_Mix_Music@@@_STL@@U?$_Select1st@U?$pair@$$CBIPAU_Mix_Music@@@_STL@@@2@U?$less@I@2@V?$allocator@U?$pair@$$CBIPAU_Mix_Music@@@_STL@@@2@@_STL@@AAEXXZ 0042a090 f i main.obj
 0001:00029100       ??0?$_Rb_tree_base@U?$pair@$$CBIPAU_Mix_Music@@@_STL@@V?$allocator@U?$pair@$$CBIPAU_Mix_Music@@@_STL@@@2@@_STL@@QAE@ABV?$allocator@U?$pair@$$CBIPAU_Mix_Music@@@_STL@@@1@@Z 0042a100 f i main.obj
 0001:00029180       ?_M_empty_initialize@?$_Rb_tree@IU?$pair@$$CBIPAUMix_Chunk@@@_STL@@U?$_Select1st@U?$pair@$$CBIPAUMix_Chunk@@@_STL@@@2@U?$less@I@2@V?$allocator@U?$pair@$$CBIPAUMix_Chunk@@@_STL@@@2@@_STL@@AAEXXZ 0042a180 f i main.obj
 0001:000291f0       ??0?$_Rb_tree_base@U?$pair@$$CBIPAUMix_Chunk@@@_STL@@V?$allocator@U?$pair@$$CBIPAUMix_Chunk@@@_STL@@@2@@_STL@@QAE@ABV?$allocator@U?$pair@$$CBIPAUMix_Chunk@@@_STL@@@1@@Z 0042a1f0 f i main.obj
 0001:00029270       ?_S_color@?$_Rb_tree@IU?$pair@$$CBIPAU_Mix_Music@@@_STL@@U?$_Select1st@U?$pair@$$CBIPAU_Mix_Music@@@_STL@@@2@U?$less@I@2@V?$allocator@U?$pair@$$CBIPAU_Mix_Music@@@_STL@@@2@@_STL@@KAAA_NPAU?$_Rb_tree_node@U?$pair@$$CBIPAU_Mix_Music@@@_STL@@@2@@Z 0042a270 f i main.obj
 0001:000292a0       ??0?$_STLP_alloc_proxy@PAU?$_Rb_tree_node@U?$pair@$$CBIPAU_Mix_Music@@@_STL@@@_STL@@U12@V?$allocator@U?$pair@$$CBIPAU_Mix_Music@@@_STL@@@2@@_STL@@QAE@ABV?$allocator@U?$pair@$$CBIPAU_Mix_Music@@@_STL@@@1@PAU?$_Rb_tree_node@U?$pair@$$CBIPAU_Mix_Music@@@_STL@@@1@@Z 0042a2a0 f i main.obj
 0001:000292f0       ?_S_color@?$_Rb_tree@IU?$pair@$$CBIPAUMix_Chunk@@@_STL@@U?$_Select1st@U?$pair@$$CBIPAUMix_Chunk@@@_STL@@@2@U?$less@I@2@V?$allocator@U?$pair@$$CBIPAUMix_Chunk@@@_STL@@@2@@_STL@@KAAA_NPAU?$_Rb_tree_node@U?$pair@$$CBIPAUMix_Chunk@@@_STL@@@2@@Z 0042a2f0 f i main.obj
 0001:00029320       ??0?$_STLP_alloc_proxy@PAU?$_Rb_tree_node@U?$pair@$$CBIPAUMix_Chunk@@@_STL@@@_STL@@U12@V?$allocator@U?$pair@$$CBIPAUMix_Chunk@@@_STL@@@2@@_STL@@QAE@ABV?$allocator@U?$pair@$$CBIPAUMix_Chunk@@@_STL@@@1@PAU?$_Rb_tree_node@U?$pair@$$CBIPAUMix_Chunk@@@_STL@@@1@@Z 0042a320 f i main.obj
 0001:00029370       ??0?$allocator@U?$pair@$$CBIPAU_Mix_Music@@@_STL@@@_STL@@QAE@ABV01@@Z 0042a370 f i main.obj
 0001:000293a0       ??0?$allocator@U?$pair@$$CBIPAUMix_Chunk@@@_STL@@@_STL@@QAE@ABV01@@Z 0042a3a0 f i main.obj
 0001:000295d0       ?Render@menu@@QAEXXZ       0042a5d0 f   Menu.obj
 0001:0002a3f0       ??0menu@@QAE@AAUMap_Settings@@PAD@Z 0042b3f0 f   Menu.obj
 0001:0002c1f0       ?MenuLoadOptions@@YA?AUMap_Settings@@XZ 0042d1f0 f   Menu.obj
 0001:0002c870       ?Solve_action@menu@@QAEXUmenu_obj_t@@@Z 0042d870 f   Menu.obj
 0001:0002d100       ?gfollow@CCamera@@QAEHXZ   0042e100 f i Menu.obj
 0001:0002d130       ?chfollow@CCamera@@QAEXH@Z 0042e130 f i Menu.obj
 0001:0002d160       ?CenterOn@CMap@@QAEXABU?$TVector3@M@@@Z 0042e160 f i Menu.obj
 0001:0002d1e0       ?FrameSizeX@CMap@@QBEMXZ   0042e1e0 f i Menu.obj
 0001:0002d230       ?FrameSizeZ@CMap@@QBEMXZ   0042e230 f i Menu.obj
 0001:0002d290       ?change_rendered_token@aiGraphicWorld@@QAEXXZ 0042e290 f i Menu.obj
 0001:0002d2e0       ?Change_Option@menu@@QAEXW4options_list@@H@Z 0042e2e0 f   Menu.obj
 0001:0002d960       ?Menuio@menu@@QAEHHHH@Z    0042e960 f   Menu.obj
 0001:0002db10       ?processevents@menu@@QAEHXZ 0042eb10 f   Menu.obj
 0001:0002dc40       ??1menu@@QAE@XZ            0042ec40 f   Menu.obj
 0001:0002de70       ??_0?$TVector2@M@@QAEAAU0@M@Z 0042ee70 f i Menu.obj
 0001:0002dec0       ??0?$TVector2@I@@QAE@XZ    0042eec0 f i Menu.obj
 0001:0002e100       ?Render@minimap@@QAEXXZ    0042f100 f   Minimap.obj
 0001:0002e8f0       ??1minimap@@QAE@XZ         0042f8f0 f   Minimap.obj
 0001:0002e940       ??0minimap@@QAE@PAVCMap@@MHHHH@Z 0042f940 f   Minimap.obj
 0001:0002ec20       ??0t3DTextures@@QAE@XZ     0042fc20 f i objects.obj
 0001:0002ed70       ??1t3DTextures@@QAE@XZ     0042fd70 f i objects.obj
 0001:0002edf0       ?clear@t3DTextures@@QAEXXZ 0042fdf0 f i objects.obj
 0001:0002ef00       ??0t3DObjects@@QAE@XZ      0042ff00 f i objects.obj
 0001:0002f050       ??1t3DObjects@@QAE@XZ      00430050 f i objects.obj
 0001:0002f120       ??_GCLoad3DS@@QAEPAXI@Z    00430120 f i objects.obj
 0001:0002f180       ??1CLoad3DS@@QAE@XZ        00430180 f i objects.obj
 0001:0002f240       ??0CConstantParticleSystem@@QAE@XZ 00430240 f i objects.obj
 0001:0002f310       ??1CConstantParticleSystem@@QAE@XZ 00430310 f i objects.obj
 0001:0002f3f0       ??0CCamera@@QAE@MMMMMMMMMMMM@Z 004303f0 f i objects.obj
 0001:0002f580       ??1CCamera@@QAE@XZ         00430580 f i objects.obj
 0001:0002f7b0       ??0tLightMaterial@@QAE@MMMMMMMMMMMM@Z 004307b0 f i objects.obj
 0001:0002f8f0       ?object_delete_displaylists@@YAXXZ 004308f0 f   objects.obj
 0001:0002fa00       ?DeleteTextures@minimap@@QAEXXZ 00430a00 f i objects.obj
 0001:0002fa50       ?objects_recreate_displaylists@@YA_NXZ 00430a50 f   objects.obj
 0001:0002fde0       ?Switch_to_fullscreen@CMap@@QAEXXZ 00430de0 f i objects.obj
 0001:0002ff00       ?update_particle_callback@@YAXPAVCParticle@@M@Z 00430f00 f   objects.obj
 0001:00030020       ?GetGravity@CParticle@@QAEABU?$TVector3@M@@XZ 00431020 f i objects.obj
 0001:00030050       ?SetGravity@CParticle@@QAEXAAU?$TVector3@M@@@Z 00431050 f i objects.obj
 0001:00030090       ?create_particle_callback@@YAXPAVCParticle@@MI@Z 00431090 f   objects.obj
 0001:000300b0       ?objects_init@@YA_NUMap_Settings@@@Z 004310b0 f   objects.obj
 0001:00031100       ?Init@CConstantParticleSystem@@QAEXIMMMMMM_NIMMAAU?$TVector3@M@@111U2@P6AXPAVCParticle@@MI@ZP6AX3M@Z@Z 00432100 f i objects.obj
 0001:000311d0       ?Reset@CSDLChrono@@QAEXXZ  004321d0 f i objects.obj
 0001:00031210       ??0?$vector@V?$basic_string@DV?$char_traits@D@_STL@@V?$allocator@D@2@@_STL@@V?$allocator@V?$basic_string@DV?$char_traits@D@_STL@@V?$allocator@D@2@@_STL@@@2@@_STL@@QAE@ABV?$allocator@V?$basic_string@DV?$char_traits@D@_STL@@V?$allocator@D@2@@_STL@@@1@@Z 00432210 f i objects.obj
 0001:00031250       ??1?$vector@V?$basic_string@DV?$char_traits@D@_STL@@V?$allocator@D@2@@_STL@@V?$allocator@V?$basic_string@DV?$char_traits@D@_STL@@V?$allocator@D@2@@_STL@@@2@@_STL@@QAE@XZ 00432250 f i objects.obj
 0001:000312d0       ?clear@?$vector@V?$basic_string@DV?$char_traits@D@_STL@@V?$allocator@D@2@@_STL@@V?$allocator@V?$basic_string@DV?$char_traits@D@_STL@@V?$allocator@D@2@@_STL@@@2@@_STL@@QAEXXZ 004322d0 f i objects.obj
 0001:00031320       ??0?$allocator@V?$basic_string@DV?$char_traits@D@_STL@@V?$allocator@D@2@@_STL@@@_STL@@QAE@XZ 00432320 f i objects.obj
 0001:00031350       ??1?$allocator@V?$basic_string@DV?$char_traits@D@_STL@@V?$allocator@D@2@@_STL@@@_STL@@QAE@XZ 00432350 f i objects.obj
 0001:00031380       ??0?$vector@IV?$allocator@I@_STL@@@_STL@@QAE@ABV?$allocator@I@1@@Z 00432380 f i objects.obj
 0001:000313c0       ??1?$vector@IV?$allocator@I@_STL@@@_STL@@QAE@XZ 004323c0 f i objects.obj
 0001:00031440       ?clear@?$vector@IV?$allocator@I@_STL@@@_STL@@QAEXXZ 00432440 f i objects.obj
 0001:00031490       ??0?$allocator@I@_STL@@QAE@XZ 00432490 f i objects.obj
 0001:000314c0       ??1?$allocator@I@_STL@@QAE@XZ 004324c0 f i objects.obj
 0001:000314f0       ??0?$vector@PAVCLoad3DS@@V?$allocator@PAVCLoad3DS@@@_STL@@@_STL@@QAE@ABV?$allocator@PAVCLoad3DS@@@1@@Z 004324f0 f i objects.obj
 0001:00031530       ??1?$vector@PAVCLoad3DS@@V?$allocator@PAVCLoad3DS@@@_STL@@@_STL@@QAE@XZ 00432530 f i objects.obj
 0001:000315b0       ??0?$allocator@PAVCLoad3DS@@@_STL@@QAE@XZ 004325b0 f i objects.obj
 0001:000315e0       ??1?$allocator@PAVCLoad3DS@@@_STL@@QAE@XZ 004325e0 f i objects.obj
 0001:00031610       ?end@?$vector@V?$basic_string@DV?$char_traits@D@_STL@@V?$allocator@D@2@@_STL@@V?$allocator@V?$basic_string@DV?$char_traits@D@_STL@@V?$allocator@D@2@@_STL@@@2@@_STL@@QAEPAV?$basic_string@DV?$char_traits@D@_STL@@V?$allocator@D@2@@2@XZ 00432610 f i objects.obj
 0001:00031640       ?erase@?$vector@V?$basic_string@DV?$char_traits@D@_STL@@V?$allocator@D@2@@_STL@@V?$allocator@V?$basic_string@DV?$char_traits@D@_STL@@V?$allocator@D@2@@_STL@@@2@@_STL@@QAEPAV?$basic_string@DV?$char_traits@D@_STL@@V?$allocator@D@2@@2@PAV32@0@Z 00432640 f i objects.obj
 0001:000316b0       ??0?$_Vector_base@V?$basic_string@DV?$char_traits@D@_STL@@V?$allocator@D@2@@_STL@@V?$allocator@V?$basic_string@DV?$char_traits@D@_STL@@V?$allocator@D@2@@_STL@@@2@@_STL@@QAE@ABV?$allocator@V?$basic_string@DV?$char_traits@D@_STL@@V?$allocator@D@2@@_STL@@@1@@Z 004326b0 f i objects.obj
 0001:00031710       ??1?$_Vector_base@V?$basic_string@DV?$char_traits@D@_STL@@V?$allocator@D@2@@_STL@@V?$allocator@V?$basic_string@DV?$char_traits@D@_STL@@V?$allocator@D@2@@_STL@@@2@@_STL@@QAE@XZ 00432710 f i objects.obj
 0001:000317b0       ?end@?$vector@IV?$allocator@I@_STL@@@_STL@@QAEPAIXZ 004327b0 f i objects.obj
 0001:000317e0       ?erase@?$vector@IV?$allocator@I@_STL@@@_STL@@QAEPAIPAI0@Z 004327e0 f i objects.obj
 0001:00031850       ??0?$_Vector_base@IV?$allocator@I@_STL@@@_STL@@QAE@ABV?$allocator@I@1@@Z 00432850 f i objects.obj
 0001:000318b0       ??1?$_Vector_base@IV?$allocator@I@_STL@@@_STL@@QAE@XZ 004328b0 f i objects.obj
 0001:00031940       ??0?$_Vector_base@PAVCLoad3DS@@V?$allocator@PAVCLoad3DS@@@_STL@@@_STL@@QAE@ABV?$allocator@PAVCLoad3DS@@@1@@Z 00432940 f i objects.obj
 0001:000319a0       ??1?$_Vector_base@PAVCLoad3DS@@V?$allocator@PAVCLoad3DS@@@_STL@@@_STL@@QAE@XZ 004329a0 f i objects.obj
 0001:00031a30       ??1?$_STLP_alloc_proxy@PAV?$basic_string@DV?$char_traits@D@_STL@@V?$allocator@D@2@@_STL@@V12@V?$allocator@V?$basic_string@DV?$char_traits@D@_STL@@V?$allocator@D@2@@_STL@@@2@@_STL@@QAE@XZ 00432a30 f i objects.obj
 0001:00031a70       ??1?$_STLP_alloc_proxy@PAIIV?$allocator@I@_STL@@@_STL@@QAE@XZ 00432a70 f i objects.obj
 0001:00031ab0       ??1?$_STLP_alloc_proxy@PAPAVCLoad3DS@@PAV1@V?$allocator@PAVCLoad3DS@@@_STL@@@_STL@@QAE@XZ 00432ab0 f i objects.obj
 0001:00031af0       ??0?$_STLP_alloc_proxy@PAV?$basic_string@DV?$char_traits@D@_STL@@V?$allocator@D@2@@_STL@@V12@V?$allocator@V?$basic_string@DV?$char_traits@D@_STL@@V?$allocator@D@2@@_STL@@@2@@_STL@@QAE@ABV?$allocator@V?$basic_string@DV?$char_traits@D@_STL@@V?$allocator@D@2@@_STL@@@1@PAV?$basic_string@DV?$char_traits@D@_STL@@V?$allocator@D@2@@1@@Z 00432af0 f i objects.obj
 0001:00031b40       ??0?$_STLP_alloc_proxy@PAIIV?$allocator@I@_STL@@@_STL@@QAE@ABV?$allocator@I@1@PAI@Z 00432b40 f i objects.obj
 0001:00031b90       ??0?$_STLP_alloc_proxy@PAPAVCLoad3DS@@PAV1@V?$allocator@PAVCLoad3DS@@@_STL@@@_STL@@QAE@ABV?$allocator@PAVCLoad3DS@@@1@PAPAVCLoad3DS@@@Z 00432b90 f i objects.obj
 0001:00031be0       ??0?$allocator@V?$basic_string@DV?$char_traits@D@_STL@@V?$allocator@D@2@@_STL@@@_STL@@QAE@ABV01@@Z 00432be0 f i objects.obj
 0001:00031c10       ??0?$allocator@I@_STL@@QAE@ABV01@@Z 00432c10 f i objects.obj
 0001:00031c40       ??0?$allocator@PAVCLoad3DS@@@_STL@@QAE@ABV01@@Z 00432c40 f i objects.obj
 0001:00031c70       ?__copy_ptrs@_STL@@YAPAV?$basic_string@DV?$char_traits@D@_STL@@V?$allocator@D@2@@1@PAV21@00ABU__false_type@1@@Z 00432c70 f i objects.obj
 0001:00031cd0       ?__copy_ptrs@_STL@@YAPAIPAI00ABU__true_type@1@@Z 00432cd0 f i objects.obj
 0001:00031d10       ?iterator_category@_STL@@YA?AUrandom_access_iterator_tag@1@PBV?$basic_string@DV?$char_traits@D@_STL@@V?$allocator@D@2@@1@@Z 00432d10 f i objects.obj
 0001:00031d40       ?distance_type@_STL@@YAPAHPBV?$basic_string@DV?$char_traits@D@_STL@@V?$allocator@D@2@@1@@Z 00432d40 f i objects.obj
 0001:00031d70       ?__copy@_STL@@YAPAV?$basic_string@DV?$char_traits@D@_STL@@V?$allocator@D@2@@1@PAV21@00ABUrandom_access_iterator_tag@1@PAH@Z 00432d70 f i objects.obj
 0001:000320f0       ?scene_init@@YAXHH@Z       004330f0 f   scene.obj
 0001:00032380       ?scene_draw@@YAXXZ         00433380 f   scene.obj
 0001:00032a20       ?Normal@CCamera@@QAE?AU?$TVector3@M@@XZ 00433a20 f i scene.obj
 0001:00032a70       ?Strafe@CCamera@@QAE?AU?$TVector3@M@@XZ 00433a70 f i scene.obj
 0001:00032ad0       ?ScrollLimitX@CMap@@QBEMXZ 00433ad0 f i scene.obj
 0001:00032b00       ?ScrollLimitZ@CMap@@QBEMXZ 00433b00 f i scene.obj
 0001:00032b30       ?SLimitX@CMap@@QAEXM@Z     00433b30 f i scene.obj
 0001:00032b70       ?SLimitZ@CMap@@QAEXM@Z     00433b70 f i scene.obj
 0001:00032bb0       ?scene_swapfullscreen@@YAHXZ 00433bb0 f   scene.obj
 0001:00032f30       ?io_processevents@@YA_NXZ  00433f30 f   sceneio.obj
 0001:00033100       ?io_reshape@@YAXHH@Z       00434100 f   sceneio.obj
 0001:00033190       ?io_active@@YAXHH@Z        00434190 f   sceneio.obj
 0001:000331d0       ?io_motion@@YAXHHHH@Z      004341d0 f   sceneio.obj
 0001:00033340       ?Clic@minimap@@QAE_NHH@Z   00434340 f i sceneio.obj
 0001:000333b0       ?io_mouse@@YAXHHH@Z        004343b0 f   sceneio.obj
 0001:00033ce0       ?GetScrollHeight@CCamera@@QBEMXZ 00434ce0 f i sceneio.obj
 0001:00033d10       ?ScrollUp@CCamera@@QAEXM@Z 00434d10 f i sceneio.obj
 0001:00033d50       ?io_clavier_synchr@@YAXW4SDLKey@@E@Z 00434d50 f   sceneio.obj
 0001:00033e20       ?io_clavier_asynchr@@YAXXZ 00434e20 f   sceneio.obj
 0001:00034590       ?NewScrollHeight@CCamera@@QAEXM@Z 00435590 f i sceneio.obj
 0001:000345c0       ?StrafeCamera@CCamera@@QAEXM@Z 004355c0 f i sceneio.obj
 0001:000346a0       ?CheckScroll@CMap@@QAEXXZ  004356a0 f i sceneio.obj
 0001:00034780       _MessageBoxA@16            00435780 f   user32:USER32.dll
 0001:00034786       _SDL_GetTicks              00435786 f   sdl:SDL.dll
 0001:0003478c       _SDL_RWFromFile            0043578c f   sdl:SDL.dll
 0001:00034792       _SDL_GL_SwapBuffers        00435792 f   sdl:SDL.dll
 0001:00034798       _SDL_PeepEvents            00435798 f   sdl:SDL.dll
 0001:0003479e       _SDL_PumpEvents            0043579e f   sdl:SDL.dll
 0001:000347a4       _SDL_WM_SetCaption         004357a4 f   sdl:SDL.dll
 0001:000347aa       _SDL_SetVideoMode          004357aa f   sdl:SDL.dll
 0001:000347b0       _SDL_GL_SetAttribute       004357b0 f   sdl:SDL.dll
 0001:000347b6       _SDL_Quit                  004357b6 f   sdl:SDL.dll
 0001:000347bc       _SDL_GetVideoInfo          004357bc f   sdl:SDL.dll
 0001:000347c2       _SDL_GetError              004357c2 f   sdl:SDL.dll
 0001:000347c8       _SDL_Init                  004357c8 f   sdl:SDL.dll
 0001:000347ce       _SDL_GetMouseState         004357ce f   sdl:SDL.dll
 0001:000347d4       _SDL_ShowCursor            004357d4 f   sdl:SDL.dll
 0001:000347da       _SDL_PushEvent             004357da f   sdl:SDL.dll
 0001:000347e0       _SDL_PollEvent             004357e0 f   sdl:SDL.dll
 0001:000347e6       _SDL_WM_GrabInput          004357e6 f   sdl:SDL.dll
 0001:000347ec       _SDL_GetKeyState           004357ec f   sdl:SDL.dll
 0001:000347f2       _Mix_OpenAudio             004357f2 f   sdl_mixer:SDL_mixer.dll
 0001:000347f8       _Mix_FreeChunk             004357f8 f   sdl_mixer:SDL_mixer.dll
 0001:000347fe       _Mix_FreeMusic             004357fe f   sdl_mixer:SDL_mixer.dll
 0001:00034804       _Mix_LoadMUS               00435804 f   sdl_mixer:SDL_mixer.dll
 0001:0003480a       _Mix_PlayMusic             0043580a f   sdl_mixer:SDL_mixer.dll
 0001:00034810       _Mix_HaltMusic             00435810 f   sdl_mixer:SDL_mixer.dll
 0001:00034816       _Mix_LoadWAV_RW            00435816 f   sdl_mixer:SDL_mixer.dll
 0001:0003481c       _Mix_PlayChannelTimed      0043581c f   sdl_mixer:SDL_mixer.dll
 0001:00034822       _Mix_HaltChannel           00435822 f   sdl_mixer:SDL_mixer.dll
 0001:00034828       _Mix_CloseAudio            00435828 f   sdl_mixer:SDL_mixer.dll
 0001:0003482e       _glCallList@4              0043582e f   opengl32:OPENGL32.dll
 0001:00034834       _glEndList@0               00435834 f   opengl32:OPENGL32.dll
 0001:0003483a       _glEnd@0                   0043583a f   opengl32:OPENGL32.dll
 0001:00034840       _glVertex3f@12             00435840 f   opengl32:OPENGL32.dll
 0001:00034846       _glTexCoord2f@8            00435846 f   opengl32:OPENGL32.dll
 0001:0003484c       _glNormal3f@12             0043584c f   opengl32:OPENGL32.dll
 0001:00034852       _glBegin@4                 00435852 f   opengl32:OPENGL32.dll
 0001:00034858       _glDisable@4               00435858 f   opengl32:OPENGL32.dll
 0001:0003485e       _glBindTexture@8           0043585e f   opengl32:OPENGL32.dll
 0001:00034864       _glColor3ub@12             00435864 f   opengl32:OPENGL32.dll
 0001:0003486a       _glEnable@4                0043586a f   opengl32:OPENGL32.dll
 0001:00034870       _glMaterialfv@12           00435870 f   opengl32:OPENGL32.dll
 0001:00034876       _glNewList@8               00435876 f   opengl32:OPENGL32.dll
 0001:0003487c       _glGenLists@4              0043587c f   opengl32:OPENGL32.dll
 0001:00034882       _glGenTextures@8           00435882 f   opengl32:OPENGL32.dll
 0001:00034888       _glDeleteTextures@8        00435888 f   opengl32:OPENGL32.dll
 0001:0003488e       _glIsTexture@4             0043588e f   opengl32:OPENGL32.dll
 0001:00034894       _glPopMatrix@0             00435894 f   opengl32:OPENGL32.dll
 0001:0003489a       _glRotatef@16              0043589a f   opengl32:OPENGL32.dll
 0001:000348a0       _glTranslatef@12           004358a0 f   opengl32:OPENGL32.dll
 0001:000348a6       _glPushMatrix@0            004358a6 f   opengl32:OPENGL32.dll
 0001:000348ac       _glLineWidth@4             004358ac f   opengl32:OPENGL32.dll
 0001:000348b2       _glVertex3fv@4             004358b2 f   opengl32:OPENGL32.dll
 0001:000348b8       _glColor3f@12              004358b8 f   opengl32:OPENGL32.dll
 0001:000348be       _glScalef@12               004358be f   opengl32:OPENGL32.dll
 0001:000348c4       _glDeleteLists@8           004358c4 f   opengl32:OPENGL32.dll
 0001:000348ca       _glTexCoord2d@16           004358ca f   opengl32:OPENGL32.dll
 0001:000348d0       _glColor4f@16              004358d0 f   opengl32:OPENGL32.dll
 0001:000348d6       _glBlendFunc@8             004358d6 f   opengl32:OPENGL32.dll
 0001:000348dc       _glGetFloatv@8             004358dc f   opengl32:OPENGL32.dll
 0001:000348e2       _glVertex2i@8              004358e2 f   opengl32:OPENGL32.dll
 0001:000348e8       _glTranslated@24           004358e8 f   opengl32:OPENGL32.dll
 0001:000348ee       _glCallLists@12            004358ee f   opengl32:OPENGL32.dll
 0001:000348f4       _glListBase@4              004358f4 f   opengl32:OPENGL32.dll
 0001:000348fa       _glOrtho@48                004358fa f   opengl32:OPENGL32.dll
 0001:00034900       _glLoadIdentity@0          00435900 f   opengl32:OPENGL32.dll
 0001:00034906       _glMatrixMode@4            00435906 f   opengl32:OPENGL32.dll
 0001:0003490c       _glColor4fv@4              0043590c f   opengl32:OPENGL32.dll
 0001:00034912       _glDepthMask@4             00435912 f   opengl32:OPENGL32.dll
 0001:00034918       _glTexParameteri@12        00435918 f   opengl32:OPENGL32.dll
 0001:0003491e       _glPixelStorei@8           0043591e f   opengl32:OPENGL32.dll
 0001:00034924       _glColorMask@16            00435924 f   opengl32:OPENGL32.dll
 0001:0003492a       _glFlush@0                 0043592a f   opengl32:OPENGL32.dll
 0001:00034930       _glClear@4                 00435930 f   opengl32:OPENGL32.dll
 0001:00034936       _glTexCoord2i@8            00435936 f   opengl32:OPENGL32.dll
 0001:0003493c       _glVertex2f@8              0043593c f   opengl32:OPENGL32.dll
 0001:00034942       _glLightfv@12              00435942 f   opengl32:OPENGL32.dll
 0001:00034948       _glMateriali@12            00435948 f   opengl32:OPENGL32.dll
 0001:0003494e       _glClearDepth@8            0043594e f   opengl32:OPENGL32.dll
 0001:00034954       _glDepthFunc@4             00435954 f   opengl32:OPENGL32.dll
 0001:0003495a       _glViewport@16             0043595a f   opengl32:OPENGL32.dll
 0001:00034960       _glClearColor@16           00435960 f   opengl32:OPENGL32.dll
 0001:00034966       _glFrontFace@4             00435966 f   opengl32:OPENGL32.dll
 0001:0003496c       _glCullFace@4              0043596c f   opengl32:OPENGL32.dll
 0001:00034972       _glShadeModel@4            00435972 f   opengl32:OPENGL32.dll
 0001:00034978       _glReadPixels@28           00435978 f   opengl32:OPENGL32.dll
 0001:0003497e       _glGetIntegerv@8           0043597e f   opengl32:OPENGL32.dll
 0001:00034984       _glGetDoublev@8            00435984 f   opengl32:OPENGL32.dll
 0001:0003498a       _gluLookAt@72              0043598a f   glu32:GLU32.dll
 0001:00034990       _gluBuild2DMipmaps@28      00435990 f   glu32:GLU32.dll
 0001:00034996       _gluDeleteQuadric@4        00435996 f   glu32:GLU32.dll
 0001:0003499c       _gluSphere@20              0043599c f   glu32:GLU32.dll
 0001:000349a2       _gluQuadricDrawStyle@8     004359a2 f   glu32:GLU32.dll
 0001:000349a8       _gluNewQuadric@0           004359a8 f   glu32:GLU32.dll
 0001:000349ae       _gluPerspective@32         004359ae f   glu32:GLU32.dll
 0001:000349b4       _gluUnProject@48           004359b4 f   glu32:GLU32.dll
 0001:000349ba       ??0_Loc_init@ios_base@_STL@@QAE@XZ 004359ba f   stlport_vc6:stlport_vc645.dll
 0001:000349c0       ??1_Loc_init@ios_base@_STL@@QAE@XZ 004359c0 f   stlport_vc6:stlport_vc645.dll
 0001:000349c6       ??0Init@ios_base@_STL@@QAE@XZ 004359c6 f   stlport_vc6:stlport_vc645.dll
 0001:000349cc       ??1Init@ios_base@_STL@@QAE@XZ 004359cc f   stlport_vc6:stlport_vc645.dll
 0001:000349d2       ??6?$basic_ostream@DV?$char_traits@D@_STL@@@_STL@@QAEAAV01@P6AAAV01@AAV01@@Z@Z 004359d2 f   stlport_vc6:stlport_vc645.dll
 0001:000349d8       ?_M_put_nowiden@?$basic_ostream@DV?$char_traits@D@_STL@@@_STL@@QAEXPBD@Z 004359d8 f   stlport_vc6:stlport_vc645.dll
 0001:000349de       ?allocate@?$__node_alloc@$00$0A@@_STL@@SAPAXI@Z 004359de f   stlport_vc6:stlport_vc645.dll
 0001:000349e4       ?deallocate@?$__node_alloc@$00$0A@@_STL@@SAXPAXI@Z 004359e4 f   stlport_vc6:stlport_vc645.dll
 0001:000349ea       ?flush@?$basic_ostream@DV?$char_traits@D@_STL@@@_STL@@QAEAAV12@XZ 004359ea f   stlport_vc6:stlport_vc645.dll
 0001:000349f0       ?put@?$basic_ostream@DV?$char_traits@D@_STL@@@_STL@@QAEAAV12@D@Z 004359f0 f   stlport_vc6:stlport_vc645.dll
 0001:000349f6       ?widen@?$basic_ios@DV?$char_traits@D@_STL@@@_STL@@QBEDD@Z 004359f6 f   stlport_vc6:stlport_vc645.dll
 0001:000349fc       ??1?$allocator@D@_STL@@QAE@XZ 004359fc f   stlport_vc6:stlport_vc645.dll
 0001:00034a02       ??1?$basic_string@DV?$char_traits@D@_STL@@V?$allocator@D@2@@_STL@@QAE@XZ 00435a02 f   stlport_vc6:stlport_vc645.dll
 0001:00034a08       ??0?$basic_string@DV?$char_traits@D@_STL@@V?$allocator@D@2@@_STL@@QAE@PBDABV?$allocator@D@1@@Z 00435a08 f   stlport_vc6:stlport_vc645.dll
 0001:00034a0e       ??0?$allocator@D@_STL@@QAE@XZ 00435a0e f   stlport_vc6:stlport_vc645.dll
 0001:00034a14       ?getline@?$basic_istream@DV?$char_traits@D@_STL@@@_STL@@QAEAAV12@PADHD@Z 00435a14 f   stlport_vc6:stlport_vc645.dll
 0001:00034a1a       ?eof@ios_base@_STL@@QBE_NXZ 00435a1a f   stlport_vc6:stlport_vc645.dll
 0001:00034a20       ??6?$basic_ostream@DV?$char_traits@D@_STL@@@_STL@@QAEAAV01@I@Z 00435a20 f   stlport_vc6:stlport_vc645.dll
 0001:00034a26       ?close@?$basic_ifstream@DV?$char_traits@D@_STL@@@_STL@@QAEXXZ 00435a26 f   stlport_vc6:stlport_vc645.dll
 0001:00034a2c       ??6?$basic_ostream@DV?$char_traits@D@_STL@@@_STL@@QAEAAV01@H@Z 00435a2c f   stlport_vc6:stlport_vc645.dll
 0001:00034a32       ??_D?$basic_ifstream@DV?$char_traits@D@_STL@@@_STL@@QAEXXZ 00435a32 f   stlport_vc6:stlport_vc645.dll
 0001:00034a38       ??7ios_base@_STL@@QBE_NXZ  00435a38 f   stlport_vc6:stlport_vc645.dll
 0001:00034a3e       ??0?$basic_ifstream@DV?$char_traits@D@_STL@@@_STL@@QAE@PBDH@Z 00435a3e f   stlport_vc6:stlport_vc645.dll
 0001:00034a44       ?c_str@?$basic_string@DV?$char_traits@D@_STL@@V?$allocator@D@2@@_STL@@QBEPBDXZ 00435a44 f   stlport_vc6:stlport_vc645.dll
 0001:00034a4a       ?compare@?$char_traits@D@_STL@@SAHPBD0I@Z 00435a4a f   stlport_vc6:stlport_vc645.dll
 0001:00034a50       ?data@?$basic_string@DV?$char_traits@D@_STL@@V?$allocator@D@2@@_STL@@QBEPBDXZ 00435a50 f   stlport_vc6:stlport_vc645.dll
 0001:00034a56       ?size@?$basic_string@DV?$char_traits@D@_STL@@V?$allocator@D@2@@_STL@@QBEIXZ 00435a56 f   stlport_vc6:stlport_vc645.dll
 0001:00034a5c       ?length@?$char_traits@D@_STL@@SAIPBD@Z 00435a5c f   stlport_vc6:stlport_vc645.dll
 0001:00034a62       ??1?$_Osentry@DV?$char_traits@D@_STL@@@_STL@@QAE@XZ 00435a62 f   stlport_vc6:stlport_vc645.dll
 0001:00034a68       ?setstate@?$basic_ios@DV?$char_traits@D@_STL@@@_STL@@QAEXH@Z 00435a68 f   stlport_vc6:stlport_vc645.dll
 0001:00034a6e       ?sputn@?$basic_streambuf@DV?$char_traits@D@_STL@@@_STL@@QAEHPBDH@Z 00435a6e f   stlport_vc6:stlport_vc645.dll
 0001:00034a74       ?rdbuf@?$basic_ios@DV?$char_traits@D@_STL@@@_STL@@QBEPAV?$basic_streambuf@DV?$char_traits@D@_STL@@@2@XZ 00435a74 f   stlport_vc6:stlport_vc645.dll
 0001:00034a7a       ?width@ios_base@_STL@@QAEHH@Z 00435a7a f   stlport_vc6:stlport_vc645.dll
 0001:00034a80       ?flags@ios_base@_STL@@QBEHXZ 00435a80 f   stlport_vc6:stlport_vc645.dll
 0001:00034a86       ??B?$_Osentry@DV?$char_traits@D@_STL@@@_STL@@QBE_NXZ 00435a86 f   stlport_vc6:stlport_vc645.dll
 0001:00034a8c       ??0?$_Osentry@DV?$char_traits@D@_STL@@@_STL@@QAE@AAV?$basic_ostream@DV?$char_traits@D@_STL@@@1@@Z 00435a8c f   stlport_vc6:stlport_vc645.dll
 0001:00034a92       ??0?$basic_string@DV?$char_traits@D@_STL@@V?$allocator@D@2@@_STL@@QAE@ABV01@@Z 00435a92 f   stlport_vc6:stlport_vc645.dll
 0001:00034a98       ?sputc@?$basic_streambuf@DV?$char_traits@D@_STL@@@_STL@@QAEHD@Z 00435a98 f   stlport_vc6:stlport_vc645.dll
 0001:00034a9e       ?fill@?$basic_ios@DV?$char_traits@D@_STL@@@_STL@@QBEDXZ 00435a9e f   stlport_vc6:stlport_vc645.dll
 0001:00034aa4       ?_M_increment@?$_Rb_global@_N@_STL@@SAPAU_Rb_tree_node_base@2@PAU32@@Z 00435aa4 f   stlport_vc6:stlport_vc645.dll
 0001:00034aaa       ?_M_decrement@?$_Rb_global@_N@_STL@@SAPAU_Rb_tree_node_base@2@PAU32@@Z 00435aaa f   stlport_vc6:stlport_vc645.dll
 0001:00034ab0       ?_Rebalance@?$_Rb_global@_N@_STL@@SAXPAU_Rb_tree_node_base@2@AAPAU32@@Z 00435ab0 f   stlport_vc6:stlport_vc645.dll
 0001:00034ab6       ??0?$basic_string@DV?$char_traits@D@_STL@@V?$allocator@D@2@@_STL@@QAE@XZ 00435ab6 f   stlport_vc6:stlport_vc645.dll
 0001:00034abc       ?append@?$basic_string@DV?$char_traits@D@_STL@@V?$allocator@D@2@@_STL@@QAEAAV12@ABV12@@Z 00435abc f   stlport_vc6:stlport_vc645.dll
 0001:00034ac2       ?append@?$basic_string@DV?$char_traits@D@_STL@@V?$allocator@D@2@@_STL@@QAEAAV12@PBD0@Z 00435ac2 f   stlport_vc6:stlport_vc645.dll
 0001:00034ac8       ??0?$basic_string@DV?$char_traits@D@_STL@@V?$allocator@D@2@@_STL@@QAE@U_String_reserve_t@1@IABV?$allocator@D@1@@Z 00435ac8 f   stlport_vc6:stlport_vc645.dll
 0001:00034ace       ?push_back@?$basic_string@DV?$char_traits@D@_STL@@V?$allocator@D@2@@_STL@@QAEXD@Z 00435ace f   stlport_vc6:stlport_vc645.dll
 0001:00034ad4       ?get_allocator@?$basic_string@DV?$char_traits@D@_STL@@V?$allocator@D@2@@_STL@@QBE?AV?$allocator@D@2@XZ 00435ad4 f   stlport_vc6:stlport_vc645.dll
 0001:00034ada       ??1?$_Isentry@DV?$char_traits@D@_STL@@@_STL@@QAE@XZ 00435ada f   stlport_vc6:stlport_vc645.dll
 0001:00034ae0       ?sputbackc@?$basic_streambuf@DV?$char_traits@D@_STL@@@_STL@@QAEHD@Z 00435ae0 f   stlport_vc6:stlport_vc645.dll
 0001:00034ae6       ?is@?$ctype@D@_STL@@QBE_NW4mask@ctype_base@2@D@Z 00435ae6 f   stlport_vc6:stlport_vc645.dll
 0001:00034aec       ?to_char_type@?$char_traits@D@_STL@@SADABH@Z 00435aec f   stlport_vc6:stlport_vc645.dll
 0001:00034af2       ?sbumpc@?$basic_streambuf@DV?$char_traits@D@_STL@@@_STL@@QAEHXZ 00435af2 f   stlport_vc6:stlport_vc645.dll
 0001:00034af8       ?reserve@?$basic_string@DV?$char_traits@D@_STL@@V?$allocator@D@2@@_STL@@QAEXI@Z 00435af8 f   stlport_vc6:stlport_vc645.dll
 0001:00034afe       ?clear@?$basic_string@DV?$char_traits@D@_STL@@V?$allocator@D@2@@_STL@@QAEXXZ 00435afe f   stlport_vc6:stlport_vc645.dll
 0001:00034b04       ?_M_ctype_facet@ios_base@_STL@@QBEPBVfacet@locale@2@XZ 00435b04 f   stlport_vc6:stlport_vc645.dll
 0001:00034b0a       ??B?$_Isentry@DV?$char_traits@D@_STL@@@_STL@@QBE_NXZ 00435b0a f   stlport_vc6:stlport_vc645.dll
 0001:00034b10       ??0?$_Isentry@DV?$char_traits@D@_STL@@@_STL@@QAE@AAV?$basic_istream@DV?$char_traits@D@_STL@@@1@_N@Z 00435b10 f   stlport_vc6:stlport_vc645.dll
 0001:00034b16       ??5?$basic_istream@DV?$char_traits@D@_STL@@@_STL@@QAEAAV01@AAM@Z 00435b16 f   stlport_vc6:stlport_vc645.dll
 0001:00034b1c       ?open@?$basic_ifstream@DV?$char_traits@D@_STL@@@_STL@@QAEXPBDH@Z 00435b1c f   stlport_vc6:stlport_vc645.dll
 0001:00034b22       ?clear@?$basic_ios@DV?$char_traits@D@_STL@@@_STL@@QAEXH@Z 00435b22 f   stlport_vc6:stlport_vc645.dll
 0001:00034b28       ??5?$basic_istream@DV?$char_traits@D@_STL@@@_STL@@QAEAAV01@AAI@Z 00435b28 f   stlport_vc6:stlport_vc645.dll
 0001:00034b2e       ??6?$basic_ostream@DV?$char_traits@D@_STL@@@_STL@@QAEAAV01@M@Z 00435b2e f   stlport_vc6:stlport_vc645.dll
 0001:00034b34       ??4?$basic_string@DV?$char_traits@D@_STL@@V?$allocator@D@2@@_STL@@QAEAAV01@ABV01@@Z 00435b34 f   stlport_vc6:stlport_vc645.dll
 0001:00034b3a       ??5?$basic_istream@DV?$char_traits@D@_STL@@@_STL@@QAEAAV01@AAH@Z 00435b3a f   stlport_vc6:stlport_vc645.dll
 0001:00034b40       ??_D?$basic_ofstream@DV?$char_traits@D@_STL@@@_STL@@QAEXXZ 00435b40 f   stlport_vc6:stlport_vc645.dll
 0001:00034b46       ?close@?$basic_ofstream@DV?$char_traits@D@_STL@@@_STL@@QAEXXZ 00435b46 f   stlport_vc6:stlport_vc645.dll
 0001:00034b4c       ??0?$basic_ofstream@DV?$char_traits@D@_STL@@@_STL@@QAE@PBDH@Z 00435b4c f   stlport_vc6:stlport_vc645.dll
 0001:00034b60       ??3@YAXPAX@Z               00435b60 f   msvcprtd:delop_s.obj
 0001:00034b72       ??0bad_alloc@std@@QAE@ABV01@@Z 00435b72 f   msvcprtd:MSVCP60D.dll
 0001:00034b78       ??1bad_alloc@std@@UAE@XZ   00435b78 f   msvcprtd:MSVCP60D.dll
 0001:00034b7e       ??0bad_alloc@std@@QAE@PBD@Z 00435b7e f   msvcprtd:MSVCP60D.dll
 0001:00034b84       __chkesp                   00435b84 f   MSVCRT:MSVCRT.dll
 0001:00034b8a       __onexit                   00435b8a f   MSVCRT:atonexit.obj
 0001:00034bb6       _atexit                    00435bb6 f   MSVCRT:atonexit.obj
 0001:00034bc8       ??2@YAPAXI@Z               00435bc8 f   MSVCRT:MSVCRT.dll
 0001:00034bce       ___CxxFrameHandler         00435bce f   MSVCRT:MSVCRT.dll
 0001:00034be0       _fopen                     00435be0 f   MSVCRT:MSVCRT.dll
 0001:00034be6       _fclose                    00435be6 f   MSVCRT:MSVCRT.dll
 0001:00034bec       _memset                    00435bec f   MSVCRT:MSVCRT.dll
 0001:00034bf2       _fread                     00435bf2 f   MSVCRT:MSVCRT.dll
 0001:00034c00       __chkstk                   00435c00 f   MSVCRT:chkstk.obj
 0001:00034c00       __alloca_probe             00435c00 f   MSVCRT:chkstk.obj
 0001:00034c30       _strlen                    00435c30 f   MSVCRT:MSVCRT.dll
 0001:00034c36       _strcmp                    00435c36 f   MSVCRT:MSVCRT.dll
 0001:00034c3c       _sqrt                      00435c3c f   MSVCRT:MSVCRT.dll
 0001:00034c42       __CxxThrowException@8      00435c42 f   MSVCRT:MSVCRT.dll
 0001:00034c48       _strcpy                    00435c48 f   MSVCRT:MSVCRT.dll
 0001:00034c4e       _memcpy                    00435c4e f   MSVCRT:MSVCRT.dll
 0001:00034c54       _strcat                    00435c54 f   MSVCRT:MSVCRT.dll
 0001:00034c5a       _floor                     00435c5a f   MSVCRT:MSVCRT.dll
 0001:00034c60       __ftol                     00435c60 f   MSVCRT:MSVCRT.dll
 0001:00034c66       _rand                      00435c66 f   MSVCRT:MSVCRT.dll
 0001:00034c6c       __purecall                 00435c6c f   MSVCRT:MSVCRT.dll
 0001:00034c72       _atoi                      00435c72 f   MSVCRT:MSVCRT.dll
 0001:00034c78       _strrchr                   00435c78 f   MSVCRT:MSVCRT.dll
 0001:00034c7e       _atof                      00435c7e f   MSVCRT:MSVCRT.dll
 0001:00034c84       _strchr                    00435c84 f   MSVCRT:MSVCRT.dll
 0001:00034c8a       _strncmp                   00435c8a f   MSVCRT:MSVCRT.dll
 0001:00034c90       _memmove                   00435c90 f   MSVCRT:MSVCRT.dll
 0001:00034c96       _sin                       00435c96 f   MSVCRT:MSVCRT.dll
 0001:00034c9c       _cos                       00435c9c f   MSVCRT:MSVCRT.dll
 0001:00034ca2       _free                      00435ca2 f   MSVCRT:MSVCRT.dll
 0001:00034ca8       _sprintf                   00435ca8 f   MSVCRT:MSVCRT.dll
 0001:00034cae       _malloc                    00435cae f   MSVCRT:MSVCRT.dll
 0001:00034cb4       _fseek                     00435cb4 f   MSVCRT:MSVCRT.dll
 0001:00034cba       _acos                      00435cba f   MSVCRT:MSVCRT.dll
 0001:00034cc0       ??0exception@@QAE@ABV0@@Z  00435cc0 f   MSVCRT:MSVCRT.dll
 0001:00034cc6       ??0type_info@@AAE@ABV0@@Z  00435cc6 f   MSVCRT:ti_inst.obj
 0001:00034cd1       ??_Gtype_info@@UAEPAXI@Z   00435cd1 f i MSVCRT:ti_inst.obj
 0001:00034cd1       ??_Etype_info@@UAEPAXI@Z   00435cd1 f i MSVCRT:ti_inst.obj
 0001:00034ced       ??4type_info@@AAEAAV0@ABV0@@Z 00435ced f   MSVCRT:ti_inst.obj
 0001:00034cf2       _exit                      00435cf2 f   MSVCRT:MSVCRT.dll
 0001:00034cf8       ??_L@YGXPAXIHP6EX0@Z1@Z    00435cf8 f   MSVCRT:ehvecctr.obj
 0001:00034d7a       ??_M@YGXPAXIHP6EX0@Z@Z     00435d7a f   MSVCRT:ehvecdtr.obj
 0001:00034dfa       ?__ArrayUnwind@@YGXPAXIHP6EX0@Z@Z 00435dfa f   MSVCRT:ehvecdtr.obj
 0001:00034e6e       _exp                       00435e6e f   MSVCRT:MSVCRT.dll
 0001:00034e74       _ceil                      00435e74 f   MSVCRT:MSVCRT.dll
 0001:00034e7a       _srand                     00435e7a f   MSVCRT:MSVCRT.dll
 0001:00034e80       _time                      00435e80 f   MSVCRT:MSVCRT.dll
 0001:00034e86       _printf                    00435e86 f   MSVCRT:MSVCRT.dll
 0001:00034e8c       _fprintf                   00435e8c f   MSVCRT:MSVCRT.dll
 0001:00034e92       _mainCRTStartup            00435e92 f   MSVCRT:crtexe.obj
 0001:00034fa2       ___dllonexit               00435fa2 f   MSVCRT:MSVCRT.dll
 0001:00034fa8       ??1type_info@@UAE@XZ       00435fa8 f   MSVCRT:MSVCRT.dll
 0001:00034fae       __except_handler3          00435fae f   MSVCRT:MSVCRT.dll
 0001:00034fb4       ?terminate@@YAXXZ          00435fb4 f   MSVCRT:MSVCRT.dll
 0001:00034fba       __exit                     00435fba f   MSVCRT:MSVCRT.dll
 0001:00034fc0       __XcptFilter               00435fc0 f   MSVCRT:MSVCRT.dll
 0001:00034fc6       ___p___initenv             00435fc6 f   MSVCRT:MSVCRT.dll
 0001:00034fcc       ___getmainargs             00435fcc f   MSVCRT:MSVCRT.dll
 0001:00034fd2       __initterm                 00435fd2 f   MSVCRT:MSVCRT.dll
 0001:00034fd8       __setdefaultprecision      00435fd8 f   MSVCRT:fp8.obj
 0001:00034fea       ___setusermatherr          00435fea f   MSVCRT:MSVCRT.dll
 0001:00034ff0       __matherr                  00435ff0 f   MSVCRT:merr.obj
 0001:00034ff3       __setargv                  00435ff3 f   MSVCRT:dllargv.obj
 0001:00034ff4       ___p__commode              00435ff4 f   MSVCRT:MSVCRT.dll
 0001:00034ffa       ___p__fmode                00435ffa f   MSVCRT:MSVCRT.dll
 0001:00035000       ___set_app_type            00436000 f   MSVCRT:MSVCRT.dll
 0001:00035006       __controlfp                00436006 f   MSVCRT:MSVCRT.dll
 0001:00035010       _main                      00436010 f   sdlmain:SDL_main.obj
 0001:00035200       _WinMain@16                00436200 f   sdlmain:SDL_main.obj
 0001:00035460       __strcmpi                  00436460 f   MSVCRT:MSVCRT.dll
 0001:00035466       _strncpy                   00436466 f   MSVCRT:MSVCRT.dll
 0001:0003546c       _remove                    0043646c f   MSVCRT:MSVCRT.dll
 0001:00035472       _fgetc                     00436472 f   MSVCRT:MSVCRT.dll
 0001:00035478       _setbuf                    00436478 f   MSVCRT:MSVCRT.dll
 0001:0003547e       _setvbuf                   0043647e f   MSVCRT:MSVCRT.dll
 0001:00035484       _freopen                   00436484 f   MSVCRT:MSVCRT.dll
 0001:0003548a       __isctype                  0043648a f   MSVCRT:MSVCRT.dll
 0001:00035490       _GetModuleHandleA@4        00436490 f   kernel32:KERNEL32.dll
 0001:00035496       _GetCommandLineA@0         00436496 f   kernel32:KERNEL32.dll
 0001:0003549c       _FreeLibrary@4             0043649c f   kernel32:KERNEL32.dll
 0001:000354a2       _LoadLibraryA@4            004364a2 f   kernel32:KERNEL32.dll
 0001:000354a8       _SDL_SetModuleHandle       004364a8 f   sdl:SDL.dll
 0002:00000000       __imp__gluLookAt@72        00439000     glu32:GLU32.dll
 0002:00000004       __imp__gluBuild2DMipmaps@28 00439004     glu32:GLU32.dll
 0002:00000008       __imp__gluUnProject@48     00439008     glu32:GLU32.dll
 0002:0000000c       __imp__gluDeleteQuadric@4  0043900c     glu32:GLU32.dll
 0002:00000010       __imp__gluSphere@20        00439010     glu32:GLU32.dll
 0002:00000014       __imp__gluQuadricDrawStyle@8 00439014     glu32:GLU32.dll
 0002:00000018       __imp__gluNewQuadric@0     00439018     glu32:GLU32.dll
 0002:0000001c       __imp__gluPerspective@32   0043901c     glu32:GLU32.dll
 0002:00000020       \177GLU32_NULL_THUNK_DATA  00439020     glu32:GLU32.dll
 0002:00000024       __imp__GetCommandLineA@0   00439024     kernel32:KERNEL32.dll
 0002:00000028       __imp__LoadLibraryA@4      00439028     kernel32:KERNEL32.dll
 0002:0000002c       __imp__FreeLibrary@4       0043902c     kernel32:KERNEL32.dll
 0002:00000030       __imp__GetModuleHandleA@4  00439030     kernel32:KERNEL32.dll
 0002:00000034       \177KERNEL32_NULL_THUNK_DATA 00439034     kernel32:KERNEL32.dll
 0002:00000038       __imp_??0bad_alloc@std@@QAE@ABV01@@Z 00439038     msvcprtd:MSVCP60D.dll
 0002:0000003c       __imp_??1bad_alloc@std@@UAE@XZ 0043903c     msvcprtd:MSVCP60D.dll
 0002:00000040       __imp_??0bad_alloc@std@@QAE@PBD@Z 00439040     msvcprtd:MSVCP60D.dll
 0002:00000044       \177MSVCP60D_NULL_THUNK_DATA 00439044     msvcprtd:MSVCP60D.dll
 0002:00000048       __imp___ftol               00439048     MSVCRT:MSVCRT.dll
 0002:0000004c       __imp__rand                0043904c     MSVCRT:MSVCRT.dll
 0002:00000050       __imp___purecall           00439050     MSVCRT:MSVCRT.dll
 0002:00000054       __imp__memcpy              00439054     MSVCRT:MSVCRT.dll
 0002:00000058       __imp__floor               00439058     MSVCRT:MSVCRT.dll
 0002:0000005c       __imp__free                0043905c     MSVCRT:MSVCRT.dll
 0002:00000060       __imp__atof                00439060     MSVCRT:MSVCRT.dll
 0002:00000064       __imp__strchr              00439064     MSVCRT:MSVCRT.dll
 0002:00000068       __imp__strncmp             00439068     MSVCRT:MSVCRT.dll
 0002:0000006c       __imp__memmove             0043906c     MSVCRT:MSVCRT.dll
 0002:00000070       __imp__sin                 00439070     MSVCRT:MSVCRT.dll
 0002:00000074       __imp__cos                 00439074     MSVCRT:MSVCRT.dll
 0002:00000078       __imp__strcat              00439078     MSVCRT:MSVCRT.dll
 0002:0000007c       __imp__sprintf             0043907c     MSVCRT:MSVCRT.dll
 0002:00000080       __imp__strcpy              00439080     MSVCRT:MSVCRT.dll
 0002:00000084       __imp___CxxThrowException@8 00439084     MSVCRT:MSVCRT.dll
 0002:00000088       __imp__sqrt                00439088     MSVCRT:MSVCRT.dll
 0002:0000008c       __imp__strcmp              0043908c     MSVCRT:MSVCRT.dll
 0002:00000090       __imp__strlen              00439090     MSVCRT:MSVCRT.dll
 0002:00000094       __imp__fread               00439094     MSVCRT:MSVCRT.dll
 0002:00000098       __imp__memset              00439098     MSVCRT:MSVCRT.dll
 0002:0000009c       __imp__fclose              0043909c     MSVCRT:MSVCRT.dll
 0002:000000a0       __imp__fopen               004390a0     MSVCRT:MSVCRT.dll
 0002:000000a4       __imp____CxxFrameHandler   004390a4     MSVCRT:MSVCRT.dll
 0002:000000a8       __imp_??2@YAPAXI@Z         004390a8     MSVCRT:MSVCRT.dll
 0002:000000ac       __imp__strrchr             004390ac     MSVCRT:MSVCRT.dll
 0002:000000b0       __imp__atoi                004390b0     MSVCRT:MSVCRT.dll
 0002:000000b4       __imp__fseek               004390b4     MSVCRT:MSVCRT.dll
 0002:000000b8       __imp_??0exception@@QAE@ABV0@@Z 004390b8     MSVCRT:MSVCRT.dll
 0002:000000bc       __imp__exit                004390bc     MSVCRT:MSVCRT.dll
 0002:000000c0       __imp__exp                 004390c0     MSVCRT:MSVCRT.dll
 0002:000000c4       __imp__ceil                004390c4     MSVCRT:MSVCRT.dll
 0002:000000c8       __imp__srand               004390c8     MSVCRT:MSVCRT.dll
 0002:000000cc       __imp__time                004390cc     MSVCRT:MSVCRT.dll
 0002:000000d0       __imp__printf              004390d0     MSVCRT:MSVCRT.dll
 0002:000000d4       __imp__fprintf             004390d4     MSVCRT:MSVCRT.dll
 0002:000000d8       __imp___iob                004390d8     MSVCRT:MSVCRT.dll
 0002:000000dc       __imp____dllonexit         004390dc     MSVCRT:MSVCRT.dll
 0002:000000e0       __imp___onexit             004390e0     MSVCRT:MSVCRT.dll
 0002:000000e4       __imp_??1type_info@@UAE@XZ 004390e4     MSVCRT:MSVCRT.dll
 0002:000000e8       __imp___except_handler3    004390e8     MSVCRT:MSVCRT.dll
 0002:000000ec       __imp_?terminate@@YAXXZ    004390ec     MSVCRT:MSVCRT.dll
 0002:000000f0       __imp___exit               004390f0     MSVCRT:MSVCRT.dll
 0002:000000f4       __imp___XcptFilter         004390f4     MSVCRT:MSVCRT.dll
 0002:000000f8       __imp____p___initenv       004390f8     MSVCRT:MSVCRT.dll
 0002:000000fc       __imp__malloc              004390fc     MSVCRT:MSVCRT.dll
 0002:00000100       __imp____getmainargs       00439100     MSVCRT:MSVCRT.dll
 0002:00000104       __imp___initterm           00439104     MSVCRT:MSVCRT.dll
 0002:00000108       __imp____setusermatherr    00439108     MSVCRT:MSVCRT.dll
 0002:0000010c       __imp___adjust_fdiv        0043910c     MSVCRT:MSVCRT.dll
 0002:00000110       __imp____p__commode        00439110     MSVCRT:MSVCRT.dll
 0002:00000114       __imp____p__fmode          00439114     MSVCRT:MSVCRT.dll
 0002:00000118       __imp____set_app_type      00439118     MSVCRT:MSVCRT.dll
 0002:0000011c       __imp__acos                0043911c     MSVCRT:MSVCRT.dll
 0002:00000120       __imp___controlfp          00439120     MSVCRT:MSVCRT.dll
 0002:00000124       __imp__strcmpi             00439124     MSVCRT:MSVCRT.dll
 0002:00000124       __imp___strcmpi            00439124     MSVCRT:MSVCRT.dll
 0002:00000128       __imp__strncpy             00439128     MSVCRT:MSVCRT.dll
 0002:0000012c       __imp__remove              0043912c     MSVCRT:MSVCRT.dll
 0002:00000130       __imp__fgetc               00439130     MSVCRT:MSVCRT.dll
 0002:00000134       __imp__setbuf              00439134     MSVCRT:MSVCRT.dll
 0002:00000138       __imp__setvbuf             00439138     MSVCRT:MSVCRT.dll
 0002:0000013c       __imp__freopen             0043913c     MSVCRT:MSVCRT.dll
 0002:00000140       __imp___pctype             00439140     MSVCRT:MSVCRT.dll
 0002:00000144       __imp____mb_cur_max        00439144     MSVCRT:MSVCRT.dll
 0002:00000148       __imp___chkesp             00439148     MSVCRT:MSVCRT.dll
 0002:0000014c       __imp___isctype            0043914c     MSVCRT:MSVCRT.dll
 0002:00000150       \177MSVCRT_NULL_THUNK_DATA 00439150     MSVCRT:MSVCRT.dll
 0002:00000154       __imp__glShadeModel@4      00439154     opengl32:OPENGL32.dll
 0002:00000158       __imp__glReadPixels@28     00439158     opengl32:OPENGL32.dll
 0002:0000015c       __imp__glFrontFace@4       0043915c     opengl32:OPENGL32.dll
 0002:00000160       __imp__glGetDoublev@8      00439160     opengl32:OPENGL32.dll
 0002:00000164       __imp__glGenLists@4        00439164     opengl32:OPENGL32.dll
 0002:00000168       __imp__glNewList@8         00439168     opengl32:OPENGL32.dll
 0002:0000016c       __imp__glCullFace@4        0043916c     opengl32:OPENGL32.dll
 0002:00000170       __imp__glViewport@16       00439170     opengl32:OPENGL32.dll
 0002:00000174       __imp__glClearColor@16     00439174     opengl32:OPENGL32.dll
 0002:00000178       __imp__glColor3ub@12       00439178     opengl32:OPENGL32.dll
 0002:0000017c       __imp__glBindTexture@8     0043917c     opengl32:OPENGL32.dll
 0002:00000180       __imp__glDisable@4         00439180     opengl32:OPENGL32.dll
 0002:00000184       __imp__glBegin@4           00439184     opengl32:OPENGL32.dll
 0002:00000188       __imp__glNormal3f@12       00439188     opengl32:OPENGL32.dll
 0002:0000018c       __imp__glTexCoord2f@8      0043918c     opengl32:OPENGL32.dll
 0002:00000190       __imp__glVertex3f@12       00439190     opengl32:OPENGL32.dll
 0002:00000194       __imp__glEnd@0             00439194     opengl32:OPENGL32.dll
 0002:00000198       __imp__glEndList@0         00439198     opengl32:OPENGL32.dll
 0002:0000019c       __imp__glCallList@4        0043919c     opengl32:OPENGL32.dll
 0002:000001a0       __imp__glDepthFunc@4       004391a0     opengl32:OPENGL32.dll
 0002:000001a4       __imp__glClearDepth@8      004391a4     opengl32:OPENGL32.dll
 0002:000001a8       __imp__glMateriali@12      004391a8     opengl32:OPENGL32.dll
 0002:000001ac       __imp__glLightfv@12        004391ac     opengl32:OPENGL32.dll
 0002:000001b0       __imp__glVertex2f@8        004391b0     opengl32:OPENGL32.dll
 0002:000001b4       __imp__glTexCoord2i@8      004391b4     opengl32:OPENGL32.dll
 0002:000001b8       __imp__glClear@4           004391b8     opengl32:OPENGL32.dll
 0002:000001bc       __imp__glFlush@0           004391bc     opengl32:OPENGL32.dll
 0002:000001c0       __imp__glColorMask@16      004391c0     opengl32:OPENGL32.dll
 0002:000001c4       __imp__glPixelStorei@8     004391c4     opengl32:OPENGL32.dll
 0002:000001c8       __imp__glDepthMask@4       004391c8     opengl32:OPENGL32.dll
 0002:000001cc       __imp__glColor4fv@4        004391cc     opengl32:OPENGL32.dll
 0002:000001d0       __imp__glMatrixMode@4      004391d0     opengl32:OPENGL32.dll
 0002:000001d4       __imp__glLoadIdentity@0    004391d4     opengl32:OPENGL32.dll
 0002:000001d8       __imp__glOrtho@48          004391d8     opengl32:OPENGL32.dll
 0002:000001dc       __imp__glListBase@4        004391dc     opengl32:OPENGL32.dll
 0002:000001e0       __imp__glCallLists@12      004391e0     opengl32:OPENGL32.dll
 0002:000001e4       __imp__glTranslated@24     004391e4     opengl32:OPENGL32.dll
 0002:000001e8       __imp__glVertex2i@8        004391e8     opengl32:OPENGL32.dll
 0002:000001ec       __imp__glGetFloatv@8       004391ec     opengl32:OPENGL32.dll
 0002:000001f0       __imp__glBlendFunc@8       004391f0     opengl32:OPENGL32.dll
 0002:000001f4       __imp__glColor4f@16        004391f4     opengl32:OPENGL32.dll
 0002:000001f8       __imp__glTexCoord2d@16     004391f8     opengl32:OPENGL32.dll
 0002:000001fc       __imp__glDeleteLists@8     004391fc     opengl32:OPENGL32.dll
 0002:00000200       __imp__glScalef@12         00439200     opengl32:OPENGL32.dll
 0002:00000204       __imp__glColor3f@12        00439204     opengl32:OPENGL32.dll
 0002:00000208       __imp__glVertex3fv@4       00439208     opengl32:OPENGL32.dll
 0002:0000020c       __imp__glLineWidth@4       0043920c     opengl32:OPENGL32.dll
 0002:00000210       __imp__glPushMatrix@0      00439210     opengl32:OPENGL32.dll
 0002:00000214       __imp__glTranslatef@12     00439214     opengl32:OPENGL32.dll
 0002:00000218       __imp__glRotatef@16        00439218     opengl32:OPENGL32.dll
 0002:0000021c       __imp__glPopMatrix@0       0043921c     opengl32:OPENGL32.dll
 0002:00000220       __imp__glIsTexture@4       00439220     opengl32:OPENGL32.dll
 0002:00000224       __imp__glDeleteTextures@8  00439224     opengl32:OPENGL32.dll
 0002:00000228       __imp__glGenTextures@8     00439228     opengl32:OPENGL32.dll
 0002:0000022c       __imp__glMaterialfv@12     0043922c     opengl32:OPENGL32.dll
 0002:00000230       __imp__glEnable@4          00439230     opengl32:OPENGL32.dll
 0002:00000234       __imp__glTexParameteri@12  00439234     opengl32:OPENGL32.dll
 0002:00000238       __imp__glGetIntegerv@8     00439238     opengl32:OPENGL32.dll
 0002:0000023c       \177OPENGL32_NULL_THUNK_DATA 0043923c     opengl32:OPENGL32.dll
 0002:00000240       __imp__SDL_PushEvent       00439240     sdl:SDL.dll
 0002:00000244       __imp__SDL_SetModuleHandle 00439244     sdl:SDL.dll
 0002:00000248       __imp__SDL_ShowCursor      00439248     sdl:SDL.dll
 0002:0000024c       __imp__SDL_GetTicks        0043924c     sdl:SDL.dll
 0002:00000250       __imp__SDL_RWFromFile      00439250     sdl:SDL.dll
 0002:00000254       __imp__SDL_GL_SwapBuffers  00439254     sdl:SDL.dll
 0002:00000258       __imp__SDL_PeepEvents      00439258     sdl:SDL.dll
 0002:0000025c       __imp__SDL_PumpEvents      0043925c     sdl:SDL.dll
 0002:00000260       __imp__SDL_WM_SetCaption   00439260     sdl:SDL.dll
 0002:00000264       __imp__SDL_SetVideoMode    00439264     sdl:SDL.dll
 0002:00000268       __imp__SDL_GL_SetAttribute 00439268     sdl:SDL.dll
 0002:0000026c       __imp__SDL_Quit            0043926c     sdl:SDL.dll
 0002:00000270       __imp__SDL_GetKeyState     00439270     sdl:SDL.dll
 0002:00000274       __imp__SDL_WM_GrabInput    00439274     sdl:SDL.dll
 0002:00000278       __imp__SDL_PollEvent       00439278     sdl:SDL.dll
 0002:0000027c       __imp__SDL_GetVideoInfo    0043927c     sdl:SDL.dll
 0002:00000280       __imp__SDL_GetMouseState   00439280     sdl:SDL.dll
 0002:00000284       __imp__SDL_Init            00439284     sdl:SDL.dll
 0002:00000288       __imp__SDL_GetError        00439288     sdl:SDL.dll
 0002:0000028c       \177SDL_NULL_THUNK_DATA    0043928c     sdl:SDL.dll
 0002:00000290       __imp__Mix_OpenAudio       00439290     sdl_mixer:SDL_mixer.dll
 0002:00000294       __imp__Mix_FreeChunk       00439294     sdl_mixer:SDL_mixer.dll
 0002:00000298       __imp__Mix_FreeMusic       00439298     sdl_mixer:SDL_mixer.dll
 0002:0000029c       __imp__Mix_LoadMUS         0043929c     sdl_mixer:SDL_mixer.dll
 0002:000002a0       __imp__Mix_PlayMusic       004392a0     sdl_mixer:SDL_mixer.dll
 0002:000002a4       __imp__Mix_HaltMusic       004392a4     sdl_mixer:SDL_mixer.dll
 0002:000002a8       __imp__Mix_LoadWAV_RW      004392a8     sdl_mixer:SDL_mixer.dll
 0002:000002ac       __imp__Mix_PlayChannelTimed 004392ac     sdl_mixer:SDL_mixer.dll
 0002:000002b0       __imp__Mix_HaltChannel     004392b0     sdl_mixer:SDL_mixer.dll
 0002:000002b4       __imp__Mix_CloseAudio      004392b4     sdl_mixer:SDL_mixer.dll
 0002:000002b8       \177SDL_mixer_NULL_THUNK_DATA 004392b8     sdl_mixer:SDL_mixer.dll
 0002:000002bc       __imp__MessageBoxA@16      004392bc     user32:USER32.dll
 0002:000002c0       \177USER32_NULL_THUNK_DATA 004392c0     user32:USER32.dll
 0002:000002c4       __imp_??B?$_Osentry@DV?$char_traits@D@_STL@@@_STL@@QBE_NXZ 004392c4     stlport_vc6:stlport_vc645.dll
 0002:000002c8       __imp_??0?$basic_ofstream@DV?$char_traits@D@_STL@@@_STL@@QAE@PBDH@Z 004392c8     stlport_vc6:stlport_vc645.dll
 0002:000002cc       __imp_?close@?$basic_ofstream@DV?$char_traits@D@_STL@@@_STL@@QAEXXZ 004392cc     stlport_vc6:stlport_vc645.dll
 0002:000002d0       __imp_??_D?$basic_ofstream@DV?$char_traits@D@_STL@@@_STL@@QAEXXZ 004392d0     stlport_vc6:stlport_vc645.dll
 0002:000002d4       __imp_??5?$basic_istream@DV?$char_traits@D@_STL@@@_STL@@QAEAAV01@AAH@Z 004392d4     stlport_vc6:stlport_vc645.dll
 0002:000002d8       __imp_??4?$basic_string@DV?$char_traits@D@_STL@@V?$allocator@D@2@@_STL@@QAEAAV01@ABV01@@Z 004392d8     stlport_vc6:stlport_vc645.dll
 0002:000002dc       __imp_??6?$basic_ostream@DV?$char_traits@D@_STL@@@_STL@@QAEAAV01@M@Z 004392dc     stlport_vc6:stlport_vc645.dll
 0002:000002e0       __imp_??5?$basic_istream@DV?$char_traits@D@_STL@@@_STL@@QAEAAV01@AAI@Z 004392e0     stlport_vc6:stlport_vc645.dll
 0002:000002e4       __imp_?clear@?$basic_ios@DV?$char_traits@D@_STL@@@_STL@@QAEXH@Z 004392e4     stlport_vc6:stlport_vc645.dll
 0002:000002e8       __imp_?open@?$basic_ifstream@DV?$char_traits@D@_STL@@@_STL@@QAEXPBDH@Z 004392e8     stlport_vc6:stlport_vc645.dll
 0002:000002ec       __imp_??5?$basic_istream@DV?$char_traits@D@_STL@@@_STL@@QAEAAV01@AAM@Z 004392ec     stlport_vc6:stlport_vc645.dll
 0002:000002f0       __imp_??0?$_Isentry@DV?$char_traits@D@_STL@@@_STL@@QAE@AAV?$basic_istream@DV?$char_traits@D@_STL@@@1@_N@Z 004392f0     stlport_vc6:stlport_vc645.dll
 0002:000002f4       __imp_??B?$_Isentry@DV?$char_traits@D@_STL@@@_STL@@QBE_NXZ 004392f4     stlport_vc6:stlport_vc645.dll
 0002:000002f8       __imp_?_M_ctype_facet@ios_base@_STL@@QBEPBVfacet@locale@2@XZ 004392f8     stlport_vc6:stlport_vc645.dll
 0002:000002fc       __imp_?clear@?$basic_string@DV?$char_traits@D@_STL@@V?$allocator@D@2@@_STL@@QAEXXZ 004392fc     stlport_vc6:stlport_vc645.dll
 0002:00000300       __imp_?reserve@?$basic_string@DV?$char_traits@D@_STL@@V?$allocator@D@2@@_STL@@QAEXI@Z 00439300     stlport_vc6:stlport_vc645.dll
 0002:00000304       __imp_?sbumpc@?$basic_streambuf@DV?$char_traits@D@_STL@@@_STL@@QAEHXZ 00439304     stlport_vc6:stlport_vc645.dll
 0002:00000308       __imp_?to_char_type@?$char_traits@D@_STL@@SADABH@Z 00439308     stlport_vc6:stlport_vc645.dll
 0002:0000030c       __imp_?is@?$ctype@D@_STL@@QBE_NW4mask@ctype_base@2@D@Z 0043930c     stlport_vc6:stlport_vc645.dll
 0002:00000310       __imp_?sputbackc@?$basic_streambuf@DV?$char_traits@D@_STL@@@_STL@@QAEHD@Z 00439310     stlport_vc6:stlport_vc645.dll
 0002:00000314       __imp_??1?$_Isentry@DV?$char_traits@D@_STL@@@_STL@@QAE@XZ 00439314     stlport_vc6:stlport_vc645.dll
 0002:00000318       __imp_?get_allocator@?$basic_string@DV?$char_traits@D@_STL@@V?$allocator@D@2@@_STL@@QBE?AV?$allocator@D@2@XZ 00439318     stlport_vc6:stlport_vc645.dll
 0002:0000031c       __imp_?push_back@?$basic_string@DV?$char_traits@D@_STL@@V?$allocator@D@2@@_STL@@QAEXD@Z 0043931c     stlport_vc6:stlport_vc645.dll
 0002:00000320       __imp_??0?$basic_string@DV?$char_traits@D@_STL@@V?$allocator@D@2@@_STL@@QAE@U_String_reserve_t@1@IABV?$allocator@D@1@@Z 00439320     stlport_vc6:stlport_vc645.dll
 0002:00000324       __imp_?append@?$basic_string@DV?$char_traits@D@_STL@@V?$allocator@D@2@@_STL@@QAEAAV12@PBD0@Z 00439324     stlport_vc6:stlport_vc645.dll
 0002:00000328       __imp_?append@?$basic_string@DV?$char_traits@D@_STL@@V?$allocator@D@2@@_STL@@QAEAAV12@ABV12@@Z 00439328     stlport_vc6:stlport_vc645.dll
 0002:0000032c       __imp_??0?$basic_string@DV?$char_traits@D@_STL@@V?$allocator@D@2@@_STL@@QAE@XZ 0043932c     stlport_vc6:stlport_vc645.dll
 0002:00000330       __imp_?cin@_STL@@3V?$basic_istream@DV?$char_traits@D@_STL@@@1@A 00439330     stlport_vc6:stlport_vc645.dll
 0002:00000334       __imp_?_Rebalance@?$_Rb_global@_N@_STL@@SAXPAU_Rb_tree_node_base@2@AAPAU32@@Z 00439334     stlport_vc6:stlport_vc645.dll
 0002:00000338       __imp_?_M_decrement@?$_Rb_global@_N@_STL@@SAPAU_Rb_tree_node_base@2@PAU32@@Z 00439338     stlport_vc6:stlport_vc645.dll
 0002:0000033c       __imp_?_M_increment@?$_Rb_global@_N@_STL@@SAPAU_Rb_tree_node_base@2@PAU32@@Z 0043933c     stlport_vc6:stlport_vc645.dll
 0002:00000340       __imp_?fill@?$basic_ios@DV?$char_traits@D@_STL@@@_STL@@QBEDXZ 00439340     stlport_vc6:stlport_vc645.dll
 0002:00000344       __imp_?sputc@?$basic_streambuf@DV?$char_traits@D@_STL@@@_STL@@QAEHD@Z 00439344     stlport_vc6:stlport_vc645.dll
 0002:00000348       __imp_??0?$basic_string@DV?$char_traits@D@_STL@@V?$allocator@D@2@@_STL@@QAE@ABV01@@Z 00439348     stlport_vc6:stlport_vc645.dll
 0002:0000034c       __imp_??0?$_Osentry@DV?$char_traits@D@_STL@@@_STL@@QAE@AAV?$basic_ostream@DV?$char_traits@D@_STL@@@1@@Z 0043934c     stlport_vc6:stlport_vc645.dll
 0002:00000350       __imp_?flags@ios_base@_STL@@QBEHXZ 00439350     stlport_vc6:stlport_vc645.dll
 0002:00000354       __imp_?width@ios_base@_STL@@QAEHH@Z 00439354     stlport_vc6:stlport_vc645.dll
 0002:00000358       __imp_?rdbuf@?$basic_ios@DV?$char_traits@D@_STL@@@_STL@@QBEPAV?$basic_streambuf@DV?$char_traits@D@_STL@@@2@XZ 00439358     stlport_vc6:stlport_vc645.dll
 0002:0000035c       __imp_?sputn@?$basic_streambuf@DV?$char_traits@D@_STL@@@_STL@@QAEHPBDH@Z 0043935c     stlport_vc6:stlport_vc645.dll
 0002:00000360       __imp_?setstate@?$basic_ios@DV?$char_traits@D@_STL@@@_STL@@QAEXH@Z 00439360     stlport_vc6:stlport_vc645.dll
 0002:00000364       __imp_??1?$_Osentry@DV?$char_traits@D@_STL@@@_STL@@QAE@XZ 00439364     stlport_vc6:stlport_vc645.dll
 0002:00000368       __imp_?length@?$char_traits@D@_STL@@SAIPBD@Z 00439368     stlport_vc6:stlport_vc645.dll
 0002:0000036c       __imp_?size@?$basic_string@DV?$char_traits@D@_STL@@V?$allocator@D@2@@_STL@@QBEIXZ 0043936c     stlport_vc6:stlport_vc645.dll
 0002:00000370       __imp_?data@?$basic_string@DV?$char_traits@D@_STL@@V?$allocator@D@2@@_STL@@QBEPBDXZ 00439370     stlport_vc6:stlport_vc645.dll
 0002:00000374       __imp_?compare@?$char_traits@D@_STL@@SAHPBD0I@Z 00439374     stlport_vc6:stlport_vc645.dll
 0002:00000378       __imp_?c_str@?$basic_string@DV?$char_traits@D@_STL@@V?$allocator@D@2@@_STL@@QBEPBDXZ 00439378     stlport_vc6:stlport_vc645.dll
 0002:0000037c       __imp_??7ios_base@_STL@@QBE_NXZ 0043937c     stlport_vc6:stlport_vc645.dll
 0002:00000380       __imp_??_D?$basic_ifstream@DV?$char_traits@D@_STL@@@_STL@@QAEXXZ 00439380     stlport_vc6:stlport_vc645.dll
 0002:00000384       __imp_??6?$basic_ostream@DV?$char_traits@D@_STL@@@_STL@@QAEAAV01@H@Z 00439384     stlport_vc6:stlport_vc645.dll
 0002:00000388       __imp_?close@?$basic_ifstream@DV?$char_traits@D@_STL@@@_STL@@QAEXXZ 00439388     stlport_vc6:stlport_vc645.dll
 0002:0000038c       __imp_??6?$basic_ostream@DV?$char_traits@D@_STL@@@_STL@@QAEAAV01@I@Z 0043938c     stlport_vc6:stlport_vc645.dll
 0002:00000390       __imp_?eof@ios_base@_STL@@QBE_NXZ 00439390     stlport_vc6:stlport_vc645.dll
 0002:00000394       __imp_?getline@?$basic_istream@DV?$char_traits@D@_STL@@@_STL@@QAEAAV12@PADHD@Z 00439394     stlport_vc6:stlport_vc645.dll
 0002:00000398       __imp_?cerr@_STL@@3V?$basic_ostream@DV?$char_traits@D@_STL@@@1@A 00439398     stlport_vc6:stlport_vc645.dll
 0002:0000039c       __imp_??0?$allocator@D@_STL@@QAE@XZ 0043939c     stlport_vc6:stlport_vc645.dll
 0002:000003a0       __imp_??0?$basic_string@DV?$char_traits@D@_STL@@V?$allocator@D@2@@_STL@@QAE@PBDABV?$allocator@D@1@@Z 004393a0     stlport_vc6:stlport_vc645.dll
 0002:000003a4       __imp_??1?$basic_string@DV?$char_traits@D@_STL@@V?$allocator@D@2@@_STL@@QAE@XZ 004393a4     stlport_vc6:stlport_vc645.dll
 0002:000003a8       __imp_??1?$allocator@D@_STL@@QAE@XZ 004393a8     stlport_vc6:stlport_vc645.dll
 0002:000003ac       __imp_?widen@?$basic_ios@DV?$char_traits@D@_STL@@@_STL@@QBEDD@Z 004393ac     stlport_vc6:stlport_vc645.dll
 0002:000003b0       __imp_?put@?$basic_ostream@DV?$char_traits@D@_STL@@@_STL@@QAEAAV12@D@Z 004393b0     stlport_vc6:stlport_vc645.dll
 0002:000003b4       __imp_?flush@?$basic_ostream@DV?$char_traits@D@_STL@@@_STL@@QAEAAV12@XZ 004393b4     stlport_vc6:stlport_vc645.dll
 0002:000003b8       __imp_?deallocate@?$__node_alloc@$00$0A@@_STL@@SAXPAXI@Z 004393b8     stlport_vc6:stlport_vc645.dll
 0002:000003bc       __imp_?allocate@?$__node_alloc@$00$0A@@_STL@@SAPAXI@Z 004393bc     stlport_vc6:stlport_vc645.dll
 0002:000003c0       __imp_?_M_put_nowiden@?$basic_ostream@DV?$char_traits@D@_STL@@@_STL@@QAEXPBD@Z 004393c0     stlport_vc6:stlport_vc645.dll
 0002:000003c4       __imp_?cout@_STL@@3V?$basic_ostream@DV?$char_traits@D@_STL@@@1@A 004393c4     stlport_vc6:stlport_vc645.dll
 0002:000003c8       __imp_??6?$basic_ostream@DV?$char_traits@D@_STL@@@_STL@@QAEAAV01@P6AAAV01@AAV01@@Z@Z 004393c8     stlport_vc6:stlport_vc645.dll
 0002:000003cc       __imp_??1Init@ios_base@_STL@@QAE@XZ 004393cc     stlport_vc6:stlport_vc645.dll
 0002:000003d0       __imp_??0Init@ios_base@_STL@@QAE@XZ 004393d0     stlport_vc6:stlport_vc645.dll
 0002:000003d4       __imp_??1_Loc_init@ios_base@_STL@@QAE@XZ 004393d4     stlport_vc6:stlport_vc645.dll
 0002:000003d8       __imp_??0_Loc_init@ios_base@_STL@@QAE@XZ 004393d8     stlport_vc6:stlport_vc645.dll
 0002:000003dc       __imp_??0?$basic_ifstream@DV?$char_traits@D@_STL@@@_STL@@QAE@PBDH@Z 004393dc     stlport_vc6:stlport_vc645.dll
 0002:000003e0       \177stlport_vc645_NULL_THUNK_DATA 004393e0     stlport_vc6:stlport_vc645.dll
 0002:00000444       ??_C@_0CJ@PNFO@Unable?5to?5load?5PRIMARY?5chuck?5fro@ 00439444     3dsloader.obj
 0002:00000470       ??_C@_0BK@DIPF@Unable?5to?5find?5the?5file?3?5?$AA@ 00439470     3dsloader.obj
 0002:0000048c       ??_C@_01PIHH@?$CB?$AA@     0043948c     3dsloader.obj
 0002:00000490       ??_C@_02JKAF@rb?$AA@       00439490     3dsloader.obj
 0002:00000494       ??_C@_0DL@MLBA@This?53DS?5file?5is?5over?5version?53?5@ 00439494     3dsloader.obj
 0002:000004d0       ??_C@_0BP@HBCO@Fin?5du?5chargement?5de?5l?8?il?iment?$AA@ 004394d0     C3DObject.obj
 0002:000004f0       ??_C@_0CD@INDN@Impossible?5de?5charger?5la?5texture@ 004394f0     C3DObject.obj
 0002:00000514       ??_C@_0BI@IFNG@Chargement?5des?5textures?$AA@ 00439514     C3DObject.obj
 0002:0000052c       ??_C@_0CD@MHJN@Erreur?5fatale?5tr?hs?5dangeureuse?$CB?$CB@ 0043952c     C3DObject.obj
 0002:00000550       ??_C@_0BC@OJND@Importation?5finie?$AA@ 00439550     C3DObject.obj
 0002:00000564       ??_C@_0CG@EGDH@Erreur?5lors?5du?5chargement?5du?5fic@ 00439564     C3DObject.obj
 0002:0000058c       ??_C@_0P@FJND@Importation?4?4?4?$AA@ 0043958c     C3DObject.obj
 0002:0000059c       ??_C@_0BK@BFJ@Chargement?5du?5fichier?53ds?$AA@ 0043959c     C3DObject.obj
 0002:000005b8       ??_C@_0BH@LFPC@Chargement?5du?5fichier?5?$AA@ 004395b8     C3DObject.obj
 0002:000005d0       ??_C@_07CNLG@?5?ichou?i?$AA@ 004395d0     C3DObject.obj
 0002:000005d8       ??_C@_00A@?$AA@            004395d8     C3DObject.obj
 0002:000005dc       __real@447a0000            004395dc     C3DObject.obj
 0002:000005e0       ??_C@_0DO@PPGP@Trigger?5invalide?5?3?5trigger?5insta@ 004395e0     C3DObject.obj
 0002:00000620       __real@3ff0000000000000    00439620     C3DObject.obj
 0002:00000628       __real@3f800000            00439628     C3DObject.obj
 0002:0000062c       __real@bf800000            0043962c     C3DObject.obj
 0002:00000630       __real@00000000            00439630     C3DObject.obj
 0002:00000634       __real@46fffe00            00439634     C3DObject.obj
 0002:00000638       ??_7CCastParticleSystem@@6B@ 00439638     C3DObject.obj
 0002:00000640       ??_7CParticleSystem@@6B@   00439640     C3DObject.obj
 0002:00000648       __real@40000000            00439648     C3DObject.obj
 0002:0000064c       ??_C@_04BAK@NULL?$AA@      0043964c     C3DObject.obj
 0002:00000654       ??_C@_0P@CCGB@Fichier?5charg?i?$AA@ 00439654     C3DObject.obj
 0002:00000664       ??_C@_0CF@OHJA@Impossible?5de?5trouver?5l?8enfant?5d@ 00439664     C3DObject.obj
 0002:0000068c       ??_C@_0CC@HBNJ@Cr?iation?5de?5l?8arbre?5des?5objets?4?4@ 0043968c     C3DObject.obj
 0002:000006b0       ??_C@_0CM@EACL@?5est?5inconnue?5en?5tant?5que?5DEFAUL@ 004396b0     C3DObject.obj
 0002:000006dc       ??_C@_0CJ@JMKH@?5est?5inconnue?5en?5tant?5que?5NEXT_A@ 004396dc     C3DObject.obj
 0002:00000708       ??_C@_0CJ@GOLJ@est?5inconnue?5pour?5le?5trigger?5DRO@ 00439708     C3DObject.obj
 0002:00000734       ??_C@_0BF@IOLF@Erreur?3?5l?8animation?5?$AA@ 00439734     C3DObject.obj
 0002:0000074c       ??_C@_0CJ@EJHK@est?5inconnue?5pour?5le?5trigger?5TAK@ 0043974c     C3DObject.obj
 0002:00000778       ??_C@_09GCBD@EndOfFile?$AA@ 00439778     C3DObject.obj
 0002:00000784       ??_C@_08POOA@Children?$AA@ 00439784     C3DObject.obj
 0002:00000790       ??_C@_0P@KGGB@ChildrenNumber?$AA@ 00439790     C3DObject.obj
 0002:000007a0       ??_C@_0BC@MDLN@AnimFramePosition?$AA@ 004397a0     C3DObject.obj
 0002:000007b4       ??_C@_0BA@CLKN@AnimFrameNumber?$AA@ 004397b4     C3DObject.obj
 0002:000007c4       ??_C@_0BD@DDDM@Erreur?5?$OA?5la?5ligne?5?$AA@ 004397c4     C3DObject.obj
 0002:000007d8       ??_C@_08EHID@AnimNext?$AA@ 004397d8     C3DObject.obj
 0002:000007e4       ??_C@_0BC@IAGG@NULL?5invalide?5ici?$AA@ 004397e4     C3DObject.obj
 0002:000007f8       ??_C@_08CKJH@AnimName?$AA@ 004397f8     C3DObject.obj
 0002:00000804       ??_C@_0L@DHF@AnimNumber?$AA@ 00439804     C3DObject.obj
 0002:00000810       ??_C@_0M@LNFA@AnimDefault?$AA@ 00439810     C3DObject.obj
 0002:0000081c       ??_C@_0P@MHMF@ObjectDropAnim?$AA@ 0043981c     C3DObject.obj
 0002:0000082c       ??_C@_0P@KLKN@ObjectTakeAnim?$AA@ 0043982c     C3DObject.obj
 0002:0000083c       ??_C@_0O@IGFF@ObjectAimName?$AA@ 0043983c     C3DObject.obj
 0002:0000084c       ??_C@_0N@CDEA@ObjectAimPos?$AA@ 0043984c     C3DObject.obj
 0002:0000085c       ??_C@_0BK@EEJE@Cet?5objet?5peut?5prendre?5?3?5?$AA@ 0043985c     C3DObject.obj
 0002:00000878       ??_C@_0BB@GOHJ@Objet?5inconnu?5?3?5?$AA@ 00439878     C3DObject.obj
 0002:0000088c       ??_C@_0N@ONAO@ParticleName?$AA@ 0043988c     C3DObject.obj
 0002:0000089c       ??_C@_0M@HIGH@ParticlePos?$AA@ 0043989c     C3DObject.obj
 0002:000008a8       ??_C@_0BA@BKOM@Chaine?5invalide?$AA@ 004398a8     C3DObject.obj
 0002:000008b8       ??_C@_08FLAL@Object3D?$AA@ 004398b8     C3DObject.obj
 0002:000008c4       ??_C@_0CC@NPLE@Liste?5de?58?5valeurs?5float?5invalid@ 004398c4     C3DObject.obj
 0002:000008e8       ??_C@_0M@FKE@BoundingBox?$AA@ 004398e8     C3DObject.obj
 0002:000008f4       ??_C@_0O@MLDI@Pas?5un?5nombre?$AA@ 004398f4     C3DObject.obj
 0002:00000904       ??_C@_09OJJE@ElementID?$AA@ 00439904     C3DObject.obj
 0002:00000910       ??_C@_0BB@MNEK@Ligne?5invalide?5?$CI?$AA@ 00439910     C3DObject.obj
 0002:00000924       ??_C@_03PFGM@?$CJ?3?5?$AA@ 00439924     C3DObject.obj
 0002:00000928       ??_C@_0BH@EFDM@ObjectUID?5non?5sp?icifi?i?$AA@ 00439928     C3DObject.obj
 0002:00000940       ??_C@_09HLJL@ObjectUID?$AA@ 00439940     C3DObject.obj
 0002:0000094c       ??_C@_0BH@MNDA@Traitement?5du?5fichier?5?$AA@ 0043994c     C3DObject.obj
 0002:00000964       ??_C@_0BP@IJIA@Impossible?5d?8ouvrir?5le?5fichier?$AA@ 00439964     C3DObject.obj
 0002:00000984       ??_C@_0BF@NEKN@ObjNameUIDList?$CB?$DNNULL?$AA@ 00439984     C3DObject.obj
 0002:0000099c       ??_C@_0CF@LOAB@ObjNameUIDList?5ne?5doit?5pas?5?jtre?5@ 0043999c     C3DObject.obj
 0002:000009c4       ??_C@_0BG@PDHA@AnimNameUIDList?$CB?$DNNULL?$AA@ 004399c4     C3DObject.obj
 0002:000009dc       ??_C@_0CG@KFIB@AnimNameUIDList?5ne?5doit?5pas?5?jtre@ 004399dc     C3DObject.obj
 0002:00000a04       ??_C@_0BA@JIFP@p3DObject?$CB?$DNNULL?$AA@ 00439a04     C3DObject.obj
 0002:00000a14       ??_C@_0CA@JMJ@p3DObject?5ne?5doit?5pas?5?jtre?5NULL?$AA@ 00439a14     C3DObject.obj
 0002:00000a34       ??_C@_0BH@EEMH@?$CK?$CIfilename?4c_str?$CI?$CJ?$CJ?$CB?$DN0?$AA@ 00439a34     C3DObject.obj
 0002:00000a4c       ??_C@_0CI@COGM@filename?5doit?5contenir?5un?5chemin@ 00439a4c     C3DObject.obj
 0002:00000a78       ??_C@_0FE@HMJJ@m?3?2documents?5personnels?2fichiers@ 00439a78     C3DObject.obj
 0002:00000acc       ??_C@_0L@JIOM@m_3dobject?$AA@ 00439acc     C3DObjEditor.obj
 0002:00000ad8       ??_C@_0CH@HNPL@Un?5objet?5doit?5?jtre?5assign?i?5?$OA?5l?8?i@ 00439ad8     C3DObjEditor.obj
 0002:00000b00       ??_C@_0FH@JOHN@m?3?2documents?5personnels?2fichiers@ 00439b00     C3DObjEditor.obj
 0002:00000b58       __real@43fa0000            00439b58     CCamera.obj
 0002:00000b5c       __real@40800000            00439b5c     CCamera.obj
 0002:00000b60       ??_C@_0CB@PKBK@Impossible?5de?5lire?5la?5musiq?5d?8id@ 00439b60     CSoundManager.obj
 0002:00000b84       ??_C@_0L@HLMI@szfilename?$AA@ 00439b84     CSoundManager.obj
 0002:00000b90       ??_C@_0BD@CMEO@szfilename?5?$DN?$DN?5NULL?$AA@ 00439b90     CSoundManager.obj
 0002:00000ba8       ??_C@_0FI@IFH@m?3?2documents?5personnels?2fichiers@ 00439ba8     CSoundManager.obj
 0002:00000c00       ??_C@_0BP@EKHE@Impossible?5de?5lire?5le?5son?5d?8id?$AA@ 00439c00     CSoundManager.obj
 0002:00000c20       ??_C@_0N@HGLL@ms_Singleton?$AA@ 00439c20     CSoundManager.obj
 0002:00000c30       ??_C@_0BJ@JELJ@Singleton?5non?5initialis?i?$AA@ 00439c30     CSoundManager.obj
 0002:00000c50       ??_C@_0FD@GPOA@m?3?2documents?5personnels?2fichiers@ 00439c50     CSoundManager.obj
 0002:00000ca4       ??_C@_0BC@NLGC@Assertion?5failure?$AA@ 00439ca4     customassert.obj
 0002:00000cb8       ??_C@_0BBD@HCN@Erreur?5d?8assertion?5?$CB?$CB?6Fichier?3?5?$CF@ 00439cb8     customassert.obj
 0002:00000dcc       __real@3d800000            00439dcc     font.obj
 0002:00000dd0       __real@41800000            00439dd0     font.obj
 0002:00000dd8       __real@3eff75104d551d69    00439dd8     particles.obj
 0002:00000de0       __real@3b03126f            00439de0     particles.obj
 0002:00000de4       ??_C@_03OEJG@rbt?$AA@      00439de4     tga.obj
 0002:00000de8       ??_7aiMinor@@6B@           00439de8     AI_ants.obj
 0002:00000e08       ??_7aiAnt@@6B@             00439e08     AI_ants.obj
 0002:00000e28       ??_7aiObject@@6B@          00439e28     AI_ants.obj
 0002:00000e40       __real@43b40000            00439e40     AI_ants.obj
 0002:00000e44       __real@47000000            00439e44     AI_ants.obj
 0002:00000e48       ??_7aiHarvester@@6B@       00439e48     AI_ants.obj
 0002:00000e68       ??_7aiLivingBeing@@6B@     00439e68     AI_ants.obj
 0002:00000e88       __real@3e99999a            00439e88     AI_ants.obj
 0002:00000e90       __real@3f847ae147ae147b    00439e90     AI_ants.obj
 0002:00000e98       __real@42c80000            00439e98     AI_ants.obj
 0002:00000e9c       ??_7aiScout@@6B@           00439e9c     AI_ants.obj
 0002:00000ebc       __real@3ecccccd            00439ebc     AI_ants.obj
 0002:00000ec0       ??_7aiSpider@@6B@          00439ec0     AI_enemies.obj
 0002:00000ee0       __real@459c4000            00439ee0     AI_nest.obj
 0002:00000ee4       __real@457a0000            00439ee4     AI_nest.obj
 0002:00000ee8       __real@3f000000            00439ee8     AI_nest.obj
 0002:00000eec       __real@3d4ccccd            00439eec     AI_nest.obj
 0002:00000f20       ??_C@_0BD@HIIP@textures?2token?4tga?$AA@ 00439f20     AI_renders.obj
 0002:00000f34       __real@437a0000            00439f34     AI_renders.obj
 0002:00000f38       __real@42652ee1            00439f38     AI_renders.obj
 0002:00000f3c       __real@3e4ccccd            00439f3c     AI_renders.obj
 0002:00000f40       ??_C@_07DOHD@Type?5?3?5?$AA@ 00439f40     AI_renders_in_menu.obj
 0002:00000f48       ??_C@_04LKIC@Rock?$AA@     00439f48     AI_renders_in_menu.obj
 0002:00000f50       ??_C@_04NNOK@Seed?$AA@     00439f50     AI_renders_in_menu.obj
 0002:00000f58       ??_C@_05DOBF@HP?5?3?5?$AA@ 00439f58     AI_renders_in_menu.obj
 0002:00000f60       ??_C@_02MECO@?$CFd?$AA@    00439f60     AI_renders_in_menu.obj
 0002:00000f64       ??_C@_09IBOJ@Harvester?$AA@ 00439f64     AI_renders_in_menu.obj
 0002:00000f70       ??_C@_05DOKG@Scout?$AA@    00439f70     AI_renders_in_menu.obj
 0002:00000f78       ??_C@_06MFOJ@Spider?$AA@   00439f78     AI_renders_in_menu.obj
 0002:00000f80       ??_C@_0P@LJNA@bad?5allocation?$AA@ 00439f80     AI_shared.obj
 0002:00000f90       ??_C@_0BK@MJID@?6La?5m?imoire?5est?5?ipuis?ie?4?6?$AA@ 00439f90     AI_shared.obj
 0002:00000fac       ??_C@_0L@OANP@?6Warning?5?3?$AA@ 00439fac     AI_shared.obj
 0002:00000fb8       ??_C@_0L@BCA@?6Erreur?5?3?5?$AA@ 00439fb8     AI_shared.obj
 0002:00000fc4       __real@42480000            00439fc4     AI_world.obj
 0002:00000fc8       __real@41200000            00439fc8     AI_world.obj
 0002:00000fcc       __real@42700000            00439fcc     AI_world.obj
 0002:00000fd0       __real@43960000            00439fd0     AI_world.obj
 0002:00000fd4       __real@43160000            00439fd4     AI_world.obj
 0002:00000fd8       ??_C@_08BBEI@MUSHROOM?$AA@ 00439fd8     AI_world.obj
 0002:00000fe4       ??_C@_04INMF@WEED?$AA@     00439fe4     AI_world.obj
 0002:00000ff0       __real@3fe6666666666666    00439ff0     AI_world.obj
 0002:00000ff8       ??_C@_09PCAF@REDFLOWER?$AA@ 00439ff8     AI_world.obj
 0002:00001004       ??_C@_06KOGG@SPIDER?$AA@   0043a004     AI_world.obj
 0002:0000100c       ??_C@_04BIIN@SEED?$AA@     0043a00c     AI_world.obj
 0002:00001014       ??_C@_05FBID@SCOUT?$AA@    0043a014     AI_world.obj
 0002:0000101c       ??_C@_09IJAE@HARVESTER?$AA@ 0043a01c     AI_world.obj
 0002:00001028       ??_C@_0L@PKKE@SECTORS_NB?$AA@ 0043a028     AI_world.obj
 0002:00001034       ??_C@_0CD@CKMB@?5impossible?5d?8ouvrir?5le?5fichier?5@ 0043a034     AI_world.obj
 0002:00001058       ??_7aiWeed@@6B@            0043a058     AI_world.obj
 0002:00001078       ??_7aiVegetable@@6B@       0043a078     AI_world.obj
 0002:00001098       ??_7aiMushroom@@6B@        0043a098     AI_world.obj
 0002:000010b8       ??_7aiRedFlower@@6B@       0043a0b8     AI_world.obj
 0002:000010d8       ??_7aiSeed@@6B@            0043a0d8     AI_world.obj
 0002:000010f0       ??_7aiFood@@6B@            0043a0f0     AI_world.obj
 0002:00001108       __real@40cc200000000000    0043a108     AI_world.obj
 0002:00001110       __real@401921fb54442d18    0043a110     AI_world.obj
 0002:00001118       __real@43340000            0043a118     CMap.obj
 0002:0000111c       ??_C@_0O@KPPM@textures?5OK?$CB?6?$AA@ 0043a11c     CMap.obj
 0002:0000112c       ??_C@_0BM@HGIK@Chargement?5des?5textures?4?4?4?$CB?$AA@ 0043a12c     CMap.obj
 0002:00001148       ??_C@_0L@CFIL@Map?5?$DL?5OK?$CB?6?$AA@ 0043a148     CMap.obj
 0002:00001154       ??_C@_0BI@MMAG@Calcul?5des?5normales?4?4?4?$CB?$AA@ 0043a154     CMap.obj
 0002:00001170       __real@4018000000000000    0043a170     CMap.obj
 0002:00001178       ??_C@_0BM@HJHP@Generation?5des?5textures?4?4?4?$CB?$AA@ 0043a178     CMap.obj
 0002:00001194       ??_C@_0BC@MNLJ@Aplatissement?4?4?4?$CB?$AA@ 0043a194     CMap.obj
 0002:000011a8       __real@40dfffc000000000    0043a1a8     CMap.obj
 0002:000011b0       ??_C@_0BK@CHAN@Generation?5des?5bosses?4?4?4?$CB?$AA@ 0043a1b0     CMap.obj
 0002:000011cc       ??_C@_0BL@KGGP@Allocation?5des?5tableaux?4?4?4?$AA@ 0043a1cc     CMap.obj
 0002:000011e8       ??_C@_0BK@ODHA@Saisie?5des?5parametres?4?4?4?$CB?$AA@ 0043a1e8     CMap.obj
 0002:00001204       ??_C@_0CH@LHED@Saisie?5des?5parametres?5de?5la?5cart@ 0043a204     CMap.obj
 0002:0000122c       ??_C@_0N@HKKA@leftmenu?4ini?$AA@ 0043a22c     CMap.obj
 0002:0000123c       ??_C@_0N@HBNP@Normales?5OK?$CB?$AA@ 0043a23c     CMap.obj
 0002:0000124c       ??_C@_0BE@CCAA@textures?2earth7?4tga?$AA@ 0043a24c     CMap.obj
 0002:00001260       ??_C@_0BE@ICCF@textures?2earth6?4tga?$AA@ 0043a260     CMap.obj
 0002:00001274       ??_C@_0BE@GCEK@textures?2earth5?4tga?$AA@ 0043a274     CMap.obj
 0002:00001288       ??_C@_0BE@MCGP@textures?2earth4?4tga?$AA@ 0043a288     CMap.obj
 0002:0000129c       ??_C@_0BE@KCJF@textures?2earth3?4tga?$AA@ 0043a29c     CMap.obj
 0002:000012b0       ??_C@_0BE@CLA@textures?2earth2?4tga?$AA@ 0043a2b0     CMap.obj
 0002:000012c4       ??_C@_0BE@OCNP@textures?2earth1?4tga?$AA@ 0043a2c4     CMap.obj
 0002:000012d8       ??_C@_0BO@OOAO@textures?2background?9right?4tga?$AA@ 0043a2d8     CMap.obj
 0002:000012f8       ??_C@_0BN@ENOM@textures?2background?9left?4tga?$AA@ 0043a2f8     CMap.obj
 0002:00001318       ??_C@_0BP@HIBA@textures?2background?9bottom?4tga?$AA@ 0043a318     CMap.obj
 0002:00001338       ??_C@_0BM@NNJJ@textures?2background?9top?4tga?$AA@ 0043a338     CMap.obj
 0002:00001354       ??_C@_0BO@NBCP@textures?2background?9front?4tga?$AA@ 0043a354     CMap.obj
 0002:00001374       ??_C@_0BN@KGIM@textures?2background?9back?4tga?$AA@ 0043a374     CMap.obj
 0002:00001394       __real@3c8efa35            0043a394     CMap.obj
 0002:00001398       __real@437f0000            0043a398     CMap.obj
 0002:0000139c       ??_C@_0BK@MBPB@Destruction?5de?5la?5SDL?4?4?4?6?$AA@ 0043a39c     main.obj
 0002:000013b8       ??_C@_0CL@PJEC@Je?5vous?5pr?iviens?0?5je?5large?5le?5pa@ 0043a3b8     main.obj
 0002:000013e4       ??_C@_0BC@CLBI@images?5?1?5secondes?$AA@ 0043a3e4     main.obj
 0002:000013f8       ??_C@_01FEHD@?$AN?$AA@     0043a3f8     main.obj
 0002:000013fc       ??_C@_05MOPF@world?$AA@    0043a3fc     main.obj
 0002:00001404       ??_C@_0BP@HDNO@Le?5monde?5ne?5peut?5pas?5?jtre?5null?$AA@ 0043a404     main.obj
 0002:00001428       ??_C@_0EL@FNLC@m?3?2documents?5personnels?2fichiers@ 0043a428     main.obj
 0002:00001474       ??_C@_0M@BCDE@font?5cr?ie?5?6?$AA@ 0043a474     main.obj
 0002:00001480       ??_C@_0BA@NOPP@font?5construite?$AA@ 0043a480     main.obj
 0002:00001490       ??_C@_0BB@FOFA@texture?5chargee?6?$AA@ 0043a490     main.obj
 0002:000014a4       ??_C@_0BG@JNPP@textures?2fontmask?4tga?$AA@ 0043a4a4     main.obj
 0002:000014bc       ??_C@_0BC@CBOB@textures?2font?4tga?$AA@ 0043a4bc     main.obj
 0002:000014d0       ??_C@_0BB@FMHB@texture?5generee?6?$AA@ 0043a4d0     main.obj
 0002:000014e4       ??_C@_0BL@GCPL@?6Construction?5de?5la?5font?$CB?6?$AA@ 0043a4e4     main.obj
 0002:00001500       ??_C@_0M@MGEF@Mapmenu?4ini?$AA@ 0043a500     main.obj
 0002:0000150c       ??_C@_08MDM@Menu?4ini?$AA@ 0043a50c     main.obj
 0002:00001518       ??_C@_0BD@PKDI@Chargement?5du?5menu?$AA@ 0043a518     main.obj
 0002:0000152c       ??_C@_0BB@MFFB@sounds?2oclic?4wav?$AA@ 0043a52c     main.obj
 0002:00001540       ??_C@_0BB@BMHI@sounds?2bclic?4wav?$AA@ 0043a540     main.obj
 0002:00001554       ??_C@_0BE@DEF@sounds?2creation?4wav?$AA@ 0043a554     main.obj
 0002:00001568       ??_C@_0BC@KIBP@sounds?2Pluie1?4wav?$AA@ 0043a568     main.obj
 0002:0000157c       ??_C@_0BB@IOHH@sounds?2start?4ogg?$AA@ 0043a57c     main.obj
 0002:00001590       ??_C@_0BB@CGCM@sounds?2night?4wav?$AA@ 0043a590     main.obj
 0002:000015a4       ??_C@_0BD@CIJ@sounds?2anttake?4ogg?$AA@ 0043a5a4     main.obj
 0002:000015b8       ??_C@_0BC@JOMA@sounds?2music1?4ogg?$AA@ 0043a5b8     main.obj
 0002:000015cc       ??_C@_0BB@GDPJ@sounds?2main3?4ogg?$AA@ 0043a5cc     main.obj
 0002:000015e0       ??_C@_0BB@MDNM@sounds?2main2?4ogg?$AA@ 0043a5e0     main.obj
 0002:000015f4       ??_C@_0BB@CDLD@sounds?2main1?4ogg?$AA@ 0043a5f4     main.obj
 0002:00001608       ??_C@_0CM@MDIH@Simulation?5fourmili?hre?5Isima?5Pre@ 0043a608     main.obj
 0002:00001634       ??_C@_0DB@PHDL@Impossible?5de?5s?ilectionne?5le?5mod@ 0043a634     main.obj
 0002:00001668       ??_C@_07MPME@?5bits?0?5?$AA@ 0043a668     main.obj
 0002:00001670       ??_C@_04JIMN@?5en?5?$AA@   0043a670     main.obj
 0002:00001678       ??_C@_01KOI@x?$AA@         0043a678     main.obj
 0002:0000167c       ??_C@_0BM@JOMN@Changement?5du?5mode?5vid?io?5?3?5?$AA@ 0043a67c     main.obj
 0002:00001698       ??_C@_07NJJB@fenetr?i?$AA@ 0043a698     main.obj
 0002:000016a0       ??_C@_0M@MJB@plein?5?icran?$AA@ 0043a6a0     main.obj
 0002:000016ac       ??_C@_0DA@DCGG@Mise?5en?5place?5des?5attributs?5Open@ 0043a6ac     main.obj
 0002:000016e0       ??_C@_0ED@BPJA@Erreur?5lors?5de?5la?5r?icup?iration?5d@ 0043a6e0     main.obj
 0002:00001724       ??_C@_0BB@MCK@SDL?5initialis?i?4?6?$AA@ 0043a724     main.obj
 0002:00001738       ??_C@_0CO@IONJ@Erreur?5?$OA?5l?8initialisation?5de?5la?5@ 0043a738     main.obj
 0002:00001768       ??_C@_0CD@OAIM@Initialisation?5de?5la?5SDL?5?$CIvideo?$CJ@ 0043a768     main.obj
 0002:0000178c       ??_C@_01PCFE@?2?$AA@       0043a78c     main.obj
 0002:00001790       ??_C@_0O@KGL@?$CBms_Singleton?$AA@ 0043a790     main.obj
 0002:000017a0       ??_C@_0ED@BKEE@Erreur?3?5tentative?5de?5cr?iation?5du@ 0043a7a0     main.obj
 0002:000017e4       ??_C@_0O@DNMA@BACKTOBEEVIEW?$AA@ 0043a7e4     Menu.obj
 0002:000017f4       ??_C@_0N@MKJJ@CENTERONNEST?$AA@ 0043a7f4     Menu.obj
 0002:00001804       ??_C@_08NAPM@FOLLOWME?$AA@ 0043a804     Menu.obj
 0002:00001810       ??_C@_09BEEI@PHEROMONE?$AA@ 0043a810     Menu.obj
 0002:0000181c       ??_C@_08OOPB@MENU_MAP?$AA@ 0043a81c     Menu.obj
 0002:00001828       ??_C@_0M@NJEI@SAVEOPTIONS?$AA@ 0043a828     Menu.obj
 0002:00001834       ??_C@_0P@KCEM@BACKTOMAINMENU?$AA@ 0043a834     Menu.obj
 0002:00001844       ??_C@_06BGIL@RESUME?$AA@   0043a844     Menu.obj
 0002:0000184c       ??_C@_0L@IEMD@CHANGEPAGE?$AA@ 0043a84c     Menu.obj
 0002:00001858       ??_C@_05ODIL@START?$AA@    0043a858     Menu.obj
 0002:00001860       ??_C@_03PIHE@END?$AA@      0043a860     Menu.obj
 0002:00001864       ??_C@_06GACA@BUTTON?$AA@   0043a864     Menu.obj
 0002:0000186c       ??_C@_05FKDH@BLEND?$AA@    0043a86c     Menu.obj
 0002:00001874       ??_C@_07IFCG@nbgrass?$AA@  0043a874     Menu.obj
 0002:0000187c       ??_C@_09OCLG@nestwidth?$AA@ 0043a87c     Menu.obj
 0002:00001888       ??_C@_0L@JKED@Coordnestz?$AA@ 0043a888     Menu.obj
 0002:00001894       ??_C@_0L@MPGN@Coordnestx?$AA@ 0043a894     Menu.obj
 0002:000018a0       ??_C@_08KBCM@Nbspider?$AA@ 0043a8a0     Menu.obj
 0002:000018ac       ??_C@_0M@EKAB@Nbmushrooms?$AA@ 0043a8ac     Menu.obj
 0002:000018b8       ??_C@_0P@HEKF@Nbfoodbysource?$AA@ 0043a8b8     Menu.obj
 0002:000018c8       ??_C@_0N@OKJP@Nbsourcefood?$AA@ 0043a8c8     Menu.obj
 0002:000018d8       ??_C@_0N@EFMF@Nbredflowers?$AA@ 0043a8d8     Menu.obj
 0002:000018e8       ??_C@_0L@LLIH@Floor_Size?$AA@ 0043a8e8     Menu.obj
 0002:000018f4       ??_C@_0P@IGIL@Map_Max_Height?$AA@ 0043a8f4     Menu.obj
 0002:00001904       ??_C@_0L@BJKL@Min_Radius?$AA@ 0043a904     Menu.obj
 0002:00001910       ??_C@_0L@DJOE@Max_Radius?$AA@ 0043a910     Menu.obj
 0002:0000191c       ??_C@_07PJDF@Far_Max?$AA@  0043a91c     Menu.obj
 0002:00001924       ??_C@_08HAKA@Nb_Hills?$AA@ 0043a924     Menu.obj
 0002:00001930       ??_C@_08NAGI@Mat_Size?$AA@ 0043a930     Menu.obj
 0002:0000193c       ??_C@_08IGOI@Map_Size?$AA@ 0043a93c     Menu.obj
 0002:00001948       ??_C@_09ECIO@Step_Size?$AA@ 0043a948     Menu.obj
 0002:00001954       ??_C@_06IFCC@OPTION?$AA@   0043a954     Menu.obj
 0002:0000195c       ??_C@_0M@KDNC@mask?5erreur?$AA@ 0043a95c     Menu.obj
 0002:00001968       ??_C@_06DOJN@erreur?$AA@   0043a968     Menu.obj
 0002:00001970       ??_C@_09GFHE@textures?2?$AA@ 0043a970     Menu.obj
 0002:0000197c       ??_C@_05NMBJ@TITLE?$AA@    0043a97c     Menu.obj
 0002:00001984       ??_C@_04JKI@Flat?$AA@      0043a984     Menu.obj
 0002:0000198c       ??_C@_0N@PGKN@Frame_Size_z?$AA@ 0043a98c     Menu.obj
 0002:0000199c       ??_C@_0N@KDID@Frame_Size_x?$AA@ 0043a99c     Menu.obj
 0002:000019ac       ??_C@_0BG@CGOI@Map?4ini?5n?8existe?5pas?4?$AA@ 0043a9ac     Menu.obj
 0002:000019c4       ??_C@_07ONLB@Map?4ini?$AA@ 0043a9c4     Menu.obj
 0002:000019cc       ??_C@_08BJGF@nbgrass?5?$AA@ 0043a9cc     Menu.obj
 0002:000019d8       ??_C@_0L@KJAC@nestwidth?5?$AA@ 0043a9d8     Menu.obj
 0002:000019e4       ??_C@_0M@IGHK@Coordnestz?5?$AA@ 0043a9e4     Menu.obj
 0002:000019f0       ??_C@_0M@KLCP@Coordnestx?5?$AA@ 0043a9f0     Menu.obj
 0002:000019fc       ??_C@_09IIEB@Nbspider?5?$AA@ 0043a9fc     Menu.obj
 0002:00001a08       ??_C@_0N@CFKK@Nbmushrooms?5?$AA@ 0043aa08     Menu.obj
 0002:00001a18       ??_C@_0BA@GAJE@Nbfoodbysource?5?$AA@ 0043aa18     Menu.obj
 0002:00001a28       ??_C@_0O@NJAK@Nbsourcefood?5?$AA@ 0043aa28     Menu.obj
 0002:00001a38       ??_C@_0O@EPKF@Nbredflowers?5?$AA@ 0043aa38     Menu.obj
 0002:00001a48       ??_C@_05OJ@Flat?5?$AA@     0043aa48     Menu.obj
 0002:00001a50       ??_C@_0M@LJFL@Floor_Size?5?$AA@ 0043aa50     Menu.obj
 0002:00001a5c       ??_C@_0O@OBG@Frame_Size_z?5?$AA@ 0043aa5c     Menu.obj
 0002:00001a6c       ??_C@_0O@CDED@Frame_Size_x?5?$AA@ 0043aa6c     Menu.obj
 0002:00001a7c       ??_C@_0BA@KAGG@Map_Max_Height?5?$AA@ 0043aa7c     Menu.obj
 0002:00001a8c       ??_C@_0M@JOPJ@Min_Radius?5?$AA@ 0043aa8c     Menu.obj
 0002:00001a98       ??_C@_0M@EJNJ@Max_Radius?5?$AA@ 0043aa98     Menu.obj
 0002:00001aa4       ??_C@_08IMBJ@Far_Max?5?$AA@ 0043aaa4     Menu.obj
 0002:00001ab0       ??_C@_09CJJA@Nb_Hills?5?$AA@ 0043aab0     Menu.obj
 0002:00001abc       ??_C@_09PHDA@Mat_Size?5?$AA@ 0043aabc     Menu.obj
 0002:00001ac8       ??_C@_09ENGG@Map_Size?5?$AA@ 0043aac8     Menu.obj
 0002:00001ad4       ??_C@_0L@EMKC@Step_Size?5?$AA@ 0043aad4     Menu.obj
 0002:00001ae0       ??_C@_06MBHJ@Attack?$AA@   0043aae0     objects.obj
 0002:00001ae8       ??_C@_0BD@JLCK@WalkWithSEEDToWalk?$AA@ 0043aae8     objects.obj
 0002:00001afc       ??_C@_0BD@GEKI@WalkToWalkWithSEED?$AA@ 0043aafc     objects.obj
 0002:00001b10       ??_C@_0N@ODPJ@WalkWithSEED?$AA@ 0043ab10     objects.obj
 0002:00001b20       ??_C@_0P@IFBM@HeadLeftReTurn?$AA@ 0043ab20     objects.obj
 0002:00001b30       ??_C@_0N@FJKL@HeadLeftTurn?$AA@ 0043ab30     objects.obj
 0002:00001b40       ??_C@_04IBJ@walk?$AA@      0043ab40     objects.obj
 0002:00001b48       ??_C@_04KDHN@stay?$AA@     0043ab48     objects.obj
 0002:00001b50       ??_C@_07FMEP@default?$AA@  0043ab50     objects.obj
 0002:00001b58       ??_7CConstantParticleSystem@@6B@ 0043ab58     objects.obj
 0002:00001b60       ??_C@_0BG@BKEO@textures?2particle?4tga?$AA@ 0043ab60     objects.obj
 0002:00001b78       ??_C@_0M@JBNI@AI_test?4wld?$AA@ 0043ab78     objects.obj
 0002:00001b84       ??_C@_0BC@NFJH@objects?2major?4fm1?$AA@ 0043ab84     objects.obj
 0002:00001b98       ??_C@_0BD@HDHG@objects?2spider?4fm1?$AA@ 0043ab98     objects.obj
 0002:00001bac       ??_C@_0BG@JKAK@objects?2redflower?4fm1?$AA@ 0043abac     objects.obj
 0002:00001bc4       ??_C@_0BF@ILNE@objects?2mushroom?4fm1?$AA@ 0043abc4     objects.obj
 0002:00001bdc       ??_C@_0BC@OAIO@objects?2weed2?4fm1?$AA@ 0043abdc     objects.obj
 0002:00001bf0       ??_C@_0BC@OB@objects?2weed1?4fm1?$AA@ 0043abf0     objects.obj
 0002:00001c04       ??_C@_0BJ@OJNF@objects?2minor?9lowres?4fm1?$AA@ 0043ac04     objects.obj
 0002:00001c20       ??_C@_0BC@COLF@objects?2minor?4fm1?$AA@ 0043ac20     objects.obj
 0002:00001c34       ??_C@_0BB@CKMJ@objects?2seed?4fm1?$AA@ 0043ac34     objects.obj
 0002:00001c48       ??_C@_08JLE@objects?2?$AA@ 0043ac48     objects.obj
 0002:00001c54       ??_C@_0DE@KPMA@Impossible?5de?5s?ilectionne?5le?5mod@ 0043ac54     scene.obj
 0002:00001c88       ??_C@_0DB@EPJG@Changement?5du?5mode?5vid?io?5?3?5?$CFdx?$CFd@ 0043ac88     scene.obj
 0002:00001cbc       ??_C@_0CJ@KFBN@Evenement?5activation?5de?5la?5fenet@ 0043acbc     sceneio.obj
 0002:00001cec       ??_7type_info@@6B@         0043acec     MSVCRT:ti_inst.obj
 0002:00001d30       ??_R1A@?0A@A@type_info@@8  0043ad30     MSVCRT:ti_inst.obj
 0002:00001d48       ??_R2type_info@@8          0043ad48     MSVCRT:ti_inst.obj
 0002:00001d50       ??_R3type_info@@8          0043ad50     MSVCRT:ti_inst.obj
 0002:00001d60       ??_R4type_info@@6B@        0043ad60     MSVCRT:ti_inst.obj
 0002:00003330       __CT??_R0?AVexception@@@8??0exception@@QAE@ABV0@@Z12 0043c330     AI_shared.obj
 0002:0000334c       __CT??_R0?AVbad_alloc@std@@@8??0bad_alloc@std@@QAE@ABV01@@Z12 0043c34c     AI_shared.obj
 0002:00003368       __CTA2?AVbad_alloc@std@@   0043c368     AI_shared.obj
 0002:00003374       __TI2?AVbad_alloc@std@@    0043c374     AI_shared.obj
 0002:00004460       __IMPORT_DESCRIPTOR_USER32 0043d460     user32:USER32.dll
 0002:00004474       __IMPORT_DESCRIPTOR_SDL    0043d474     sdl:SDL.dll
 0002:00004488       __IMPORT_DESCRIPTOR_SDL_mixer 0043d488     sdl_mixer:SDL_mixer.dll
 0002:0000449c       __IMPORT_DESCRIPTOR_OPENGL32 0043d49c     opengl32:OPENGL32.dll
 0002:000044b0       __IMPORT_DESCRIPTOR_GLU32  0043d4b0     glu32:GLU32.dll
 0002:000044c4       __IMPORT_DESCRIPTOR_stlport_vc645 0043d4c4     stlport_vc6:stlport_vc645.dll
 0002:000044d8       __IMPORT_DESCRIPTOR_MSVCP60D 0043d4d8     msvcprtd:MSVCP60D.dll
 0002:000044ec       __IMPORT_DESCRIPTOR_MSVCRT 0043d4ec     MSVCRT:MSVCRT.dll
 0002:00004500       __IMPORT_DESCRIPTOR_KERNEL32 0043d500     kernel32:KERNEL32.dll
 0002:00004514       __NULL_IMPORT_DESCRIPTOR   0043d514     user32:USER32.dll
 0003:00000000       ___xc_a                    00440000     MSVCRT:cinitexe.obj
 0003:000000d0       ___xc_z                    004400d0     MSVCRT:cinitexe.obj
 0003:000000d4       ___xi_a                    004400d4     MSVCRT:cinitexe.obj
 0003:000000d8       ___xi_z                    004400d8     MSVCRT:cinitexe.obj
 0003:000000e0       ?__LINE__Var@?1??Load3d@C3DObjLoader@@SA_NV?$basic_string@DV?$char_traits@D@_STL@@V?$allocator@D@2@@_STL@@PAPAVC3DObjElement@@PAUANIMATIONS_NAMEUID@@2@Z@4FA@0d6338a5 004400e0     C3DObject.obj
 0003:000000e4       ?__LINE__Var@?1??Render@C3DObjEditor@@QAEXXZ@4FA 004400e4     C3DObjEditor.obj
 0003:000000e8       ?__LINE__Var@?1??AddSound@CSoundManager@@QAE_NPADI@Z@4FA 004400e8     CSoundManager.obj
 0003:000000ec       ?g_glfont_screensizex@@3IA 004400ec     font.obj
 0003:000000f0       ?g_glfont_screensizey@@3IA 004400f0     font.obj
 0003:000000f4       ??_R0?AVexception@@@8      004400f4     AI_shared.obj
 0003:0000010c       ??_R0?AVbad_alloc@std@@@8  0044010c     AI_shared.obj
 0003:00000128       ?__LINE__Var@?1??SDL_main@@9@4FA 00440128     main.obj
 0003:00000130       ?AnimNameUID@@3PAUANIMATIONS_NAMEUID@@A 00440130     objects.obj
 0003:00000180       ?ObjNameUID@@3PAUANIMATIONS_NAMEUID@@A 00440180     objects.obj
 0003:00000198       ?MatSpec@@3PAMA            00440198     scene.obj
 0003:000001a8       ?MatDif@@3PAMA             004401a8     scene.obj
 0003:000001b8       ?MatAmb@@3PAMA             004401b8     scene.obj
 0003:000001c8       ?Light1Pos@@3PAMA          004401c8     scene.obj
 0003:000001d8       ?Light1Dif@@3PAMA          004401d8     scene.obj
 0003:000001e8       ?Light1Amb@@3PAMA          004401e8     scene.obj
 0003:000001f8       ?Light1Spec@@3PAMA         004401f8     scene.obj
 0003:00000208       ?Light2Pos@@3PAMA          00440208     scene.obj
 0003:00000218       ?Light2Dif@@3PAMA          00440218     scene.obj
 0003:00000228       ?Light2Amb@@3PAMA          00440228     scene.obj
 0003:00000238       ?Light2Spec@@3PAMA         00440238     scene.obj
 0003:00000250       ??_R0?AVtype_info@@@8      00440250     MSVCRT:ti_inst.obj
 0003:00000268       ___defaultmatherr          00440268     MSVCRT:merr.obj
 0003:0000026c       ??_C@_0BA@FFEO@WinMain?$CI?$CJ?5error?$AA@ 0044026c     sdlmain:SDL_main.obj
 0003:0000027c       ??_C@_07OEOL@?$CFs?3?5?$CFs?6?$AA@ 0044027c     sdlmain:SDL_main.obj
 0003:00000284       ??_C@_0M@MMAJ@Fatal?5Error?$AA@ 00440284     sdlmain:SDL_main.obj
 0003:00000290       ??_C@_0BJ@EJNJ@Out?5of?5memory?5?9?5aborting?$AA@ 00440290     sdlmain:SDL_main.obj
 0003:000002ac       ??_C@_0L@BIBO@stderr?4txt?$AA@ 004402ac     sdlmain:SDL_main.obj
 0003:000002b8       ??_C@_0L@BJCH@stdout?4txt?$AA@ 004402b8     sdlmain:SDL_main.obj
 0003:000002c4       ??_C@_01LLF@w?$AA@         004402c4     sdlmain:SDL_main.obj
 0003:000002c8       ??_C@_09LLMO@DDRAW?4DLL?$AA@ 004402c8     sdlmain:SDL_main.obj
 0003:000002f8       ?g_bubbletext_texid@@3IA   004402f8     CBubbleText.obj
 0003:000002fc       ?g_bubbletext_dlist@@3IA   004402fc     CBubbleText.obj
 0003:00000314       ?ms_Singleton@?$TSingleton@VCSoundManager@@@@0PAVCSoundManager@@A 00440314     CSoundManager.obj
 0003:00000318       ?ignoreAlways@?2???1?$TSingleton@VCSoundManager@@@@QAE@XZ@4HA 00440318     CSoundManager.obj
 0003:0000031c       ?g_glfont_texturesid@@3IA  0044031c     font.obj
 0003:00000320       ?g_glfont_texturesmaskid@@3IA 00440320     font.obj
 0003:00000324       ?g_glfont_texturelist@@3IA 00440324     font.obj
 0003:00000328       ?g_glfont_texturelistmask@@3IA 00440328     font.obj
 0003:00000340       ?ignoreAlways@?2??GetSingleton@?$TSingleton@VCSoundManager@@@@SAAAVCSoundManager@@XZ@4HA 00440340     AI_nest.obj
 0003:00000358       ?anims_links_@@3PAPAUAnimsCell@@A 00440358     AI_renders.obj
 0003:000003a0       ?g_exepath@@3PADA          004403a0     main.obj
 0003:000004a4       ?g_drtm@@3MA               004404a4     main.obj
 0003:000004b0       ?ignoreAlways@?2???0?$TSingleton@VCSoundManager@@@@QAE@XZ@4HA 004404b0     main.obj
 0003:000004c0       ?TempSettings@@3UMap_Settings@@A 004404c0     objects.obj
 0003:00000514       ?cCam@@3VCCamera@@A        00440514     objects.obj
 0003:00000550       ?g_sztextureparticule@@3PADA 00440550     objects.obj
 0003:00000650       ?g_matSeed@@3UtLightMaterial@@A 00440650     objects.obj
 0003:00000680       ?g_objects_list@@3Ut3DObjects@@A 00440680     objects.obj
 0003:0000069c       ?g_matDefault@@3UtLightMaterial@@A 0044069c     objects.obj
 0003:000006d0       ?g_ParticleSystem@@3VCConstantParticleSystem@@A 004406d0     objects.obj
 0003:00000758       ?g_textures_list@@3Ut3DTextures@@A 00440758     objects.obj
 0003:00000778       ?g_ObjsSeed@@3PAVC3DObjElements@@A 00440778     objects.obj
 0003:0000077c       ?g_ObjsHarvester@@3PAVC3DObjElements@@A 0044077c     objects.obj
 0003:00000780       ?g_ObjsWeed1@@3PAVC3DObjElements@@A 00440780     objects.obj
 0003:00000784       ?g_ObjsWeed2@@3PAVC3DObjElements@@A 00440784     objects.obj
 0003:00000788       ?g_ObjsMushroom@@3PAVC3DObjElements@@A 00440788     objects.obj
 0003:0000078c       ?g_ObjsRedFlower@@3PAVC3DObjElements@@A 0044078c     objects.obj
 0003:00000790       ?g_ObjsFleurRouge@@3PAVC3DObjElements@@A 00440790     objects.obj
 0003:00000794       ?g_ObjsSpider@@3PAVC3DObjElements@@A 00440794     objects.obj
 0003:00000798       ?g_ObjsMajor@@3PAVC3DObjElements@@A 00440798     objects.obj
 0003:0000079c       ?world@@3PAVaiWorld@@A     0044079c     objects.obj
 0003:000007a0       ?menu_main@@3PAVmenu@@A    004407a0     objects.obj
 0003:000007a4       ?menu_map@@3PAVmenu@@A     004407a4     objects.obj
 0003:000007a8       ?Main_Mode@@3W4Mode_GL@@A  004407a8     objects.obj
 0003:000007ac       ?Init@@3HA                 004407ac     objects.obj
 0003:000007b0       ?g_fullscreen@@3HA         004407b0     scene.obj
 0003:000007b4       ?g_ParticleChrono@@3VCSDLChrono@@A 004407b4     scene.obj
 0003:000007c4       ?g_draw_thread_active@@3HA 004407c4     scene.obj
 0003:000007c8       ?g_swapfullscreen@@3HA     004407c8     scene.obj
 0003:000007d0       ?fourmipos@@3MA            004407d0     scene.obj
 0003:000007d8       ?p@@3HA                    004407d8     sceneio.obj
 0003:000007e0       ?g_objx@@3NA               004407e0     sceneio.obj
 0003:000007e8       ?g_objy@@3NA               004407e8     sceneio.obj
 0003:000007f0       ?g_objz@@3NA               004407f0     sceneio.obj
 0003:000007f8       __dowildcard               004407f8     MSVCRT:wildcard.obj
 0003:000007fc       __newmode                  004407fc     MSVCRT:_newmode.obj
 0003:00000800       __commode                  00440800     MSVCRT:xncommod.obj
 0003:00000804       __fmode                    00440804     MSVCRT:xtxtmode.obj
 0003:00000808       _texFormat                 00440808     <common>
 0003:0000080c       __adjust_fdiv              0044080c     <common>
 0003:00000810       ___onexitend               00440810     <common>
 0003:00000814       ___onexitbegin             00440814     <common>

 entry point at        0001:00034e92

 Static symbols

 0001:00032d30       _$E42                      00433d30 f   sceneio.obj
 0001:00032d70       _$E39                      00433d70 f   sceneio.obj
 0001:00032db0       _$E41                      00433db0 f   sceneio.obj
 0001:00032df0       _$E40                      00433df0 f   sceneio.obj
 0001:00032e30       _$E47                      00433e30 f   sceneio.obj
 0001:00032e70       _$E44                      00433e70 f   sceneio.obj
 0001:00032eb0       _$E46                      00433eb0 f   sceneio.obj
 0001:00032ef0       _$E45                      00433ef0 f   sceneio.obj
 0001:00031df0       _$E42                      00432df0 f   scene.obj
 0001:00031e30       _$E39                      00432e30 f   scene.obj
 0001:00031e70       _$E41                      00432e70 f   scene.obj
 0001:00031eb0       _$E40                      00432eb0 f   scene.obj
 0001:00031ef0       _$E47                      00432ef0 f   scene.obj
 0001:00031f30       _$E44                      00432f30 f   scene.obj
 0001:00031f70       _$E46                      00432f70 f   scene.obj
 0001:00031fb0       _$E45                      00432fb0 f   scene.obj
 0001:00031ff0       _$E56                      00432ff0 f   scene.obj
 0001:00032030       _$E53                      00433030 f   scene.obj
 0001:00032070       _$E55                      00433070 f   scene.obj
 0001:000320b0       _$E54                      004330b0 f   scene.obj
 0001:0002e9a0       _$E42                      0042f9a0 f   objects.obj
 0001:0002e9e0       _$E39                      0042f9e0 f   objects.obj
 0001:0002ea20       _$E41                      0042fa20 f   objects.obj
 0001:0002ea60       _$E40                      0042fa60 f   objects.obj
 0001:0002eaa0       _$E47                      0042faa0 f   objects.obj
 0001:0002eae0       _$E44                      0042fae0 f   objects.obj
 0001:0002eb20       _$E46                      0042fb20 f   objects.obj
 0001:0002eb60       _$E45                      0042fb60 f   objects.obj
 0001:0002eba0       _$E56                      0042fba0 f   objects.obj
 0001:0002ebe0       _$E53                      0042fbe0 f   objects.obj
 0001:0002ecf0       _$E55                      0042fcf0 f   objects.obj
 0001:0002ed30       _$E54                      0042fd30 f   objects.obj
 0001:0002ee80       _$E61                      0042fe80 f   objects.obj
 0001:0002eec0       _$E58                      0042fec0 f   objects.obj
 0001:0002efd0       _$E60                      0042ffd0 f   objects.obj
 0001:0002f010       _$E59                      00430010 f   objects.obj
 0001:0002f1c0       _$E66                      004301c0 f   objects.obj
 0001:0002f200       _$E63                      00430200 f   objects.obj
 0001:0002f290       _$E65                      00430290 f   objects.obj
 0001:0002f2d0       _$E64                      004302d0 f   objects.obj
 0001:0002f350       _$E71                      00430350 f   objects.obj
 0001:0002f390       _$E68                      00430390 f   objects.obj
 0001:0002f500       _$E70                      00430500 f   objects.obj
 0001:0002f540       _$E69                      00430540 f   objects.obj
 0001:0002f610       _$E76                      00430610 f   objects.obj
 0001:0002f650       _$E73                      00430650 f   objects.obj
 0001:0002f690       _$E75                      00430690 f   objects.obj
 0001:0002f6d0       _$E74                      004306d0 f   objects.obj
 0001:0002f710       _$E79                      00430710 f   objects.obj
 0001:0002f740       _$E78                      00430740 f   objects.obj
 0001:0002f850       _$E82                      00430850 f   objects.obj
 0001:0002f880       _$E81                      00430880 f   objects.obj
 0001:0002df00       _$E42                      0042ef00 f   Minimap.obj
 0001:0002df40       _$E39                      0042ef40 f   Minimap.obj
 0001:0002df80       _$E41                      0042ef80 f   Minimap.obj
 0001:0002dfc0       _$E40                      0042efc0 f   Minimap.obj
 0001:0002e000       _$E47                      0042f000 f   Minimap.obj
 0001:0002e040       _$E44                      0042f040 f   Minimap.obj
 0001:0002e080       _$E46                      0042f080 f   Minimap.obj
 0001:0002e0c0       _$E45                      0042f0c0 f   Minimap.obj
 0001:000293d0       _$E42                      0042a3d0 f   Menu.obj
 0001:00029410       _$E39                      0042a410 f   Menu.obj
 0001:00029450       _$E41                      0042a450 f   Menu.obj
 0001:00029490       _$E40                      0042a490 f   Menu.obj
 0001:000294d0       _$E47                      0042a4d0 f   Menu.obj
 0001:00029510       _$E44                      0042a510 f   Menu.obj
 0001:00029550       _$E46                      0042a550 f   Menu.obj
 0001:00029590       _$E45                      0042a590 f   Menu.obj
 0001:00027d90       _$E42                      00428d90 f   main.obj
 0001:00027dd0       _$E39                      00428dd0 f   main.obj
 0001:00027e10       _$E41                      00428e10 f   main.obj
 0001:00027e50       _$E40                      00428e50 f   main.obj
 0001:00027e90       _$E47                      00428e90 f   main.obj
 0001:00027ed0       _$E44                      00428ed0 f   main.obj
 0001:00027f10       _$E46                      00428f10 f   main.obj
 0001:00027f50       _$E45                      00428f50 f   main.obj
 0001:00023b40       _$E42                      00424b40 f   CMap.obj
 0001:00023b80       _$E39                      00424b80 f   CMap.obj
 0001:00023bc0       _$E41                      00424bc0 f   CMap.obj
 0001:00023c00       _$E40                      00424c00 f   CMap.obj
 0001:00023c40       _$E47                      00424c40 f   CMap.obj
 0001:00023c80       _$E44                      00424c80 f   CMap.obj
 0001:00023cc0       _$E46                      00424cc0 f   CMap.obj
 0001:00023d00       _$E45                      00424d00 f   CMap.obj
 0001:0001f690       _$E42                      00420690 f   AI_world.obj
 0001:0001f6d0       _$E39                      004206d0 f   AI_world.obj
 0001:0001f710       _$E41                      00420710 f   AI_world.obj
 0001:0001f750       _$E40                      00420750 f   AI_world.obj
 0001:0001f790       _$E47                      00420790 f   AI_world.obj
 0001:0001f7d0       _$E44                      004207d0 f   AI_world.obj
 0001:0001f810       _$E46                      00420810 f   AI_world.obj
 0001:0001f850       _$E45                      00420850 f   AI_world.obj
 0001:0001ed10       _$E42                      0041fd10 f   AI_shared.obj
 0001:0001ed50       _$E39                      0041fd50 f   AI_shared.obj
 0001:0001ed90       _$E41                      0041fd90 f   AI_shared.obj
 0001:0001edd0       _$E40                      0041fdd0 f   AI_shared.obj
 0001:0001ee10       _$E47                      0041fe10 f   AI_shared.obj
 0001:0001ee50       _$E44                      0041fe50 f   AI_shared.obj
 0001:0001ee90       _$E46                      0041fe90 f   AI_shared.obj
 0001:0001eed0       _$E45                      0041fed0 f   AI_shared.obj
 0001:0001eb10       _$E42                      0041fb10 f   AI_ring.obj
 0001:0001eb50       _$E39                      0041fb50 f   AI_ring.obj
 0001:0001eb90       _$E41                      0041fb90 f   AI_ring.obj
 0001:0001ebd0       _$E40                      0041fbd0 f   AI_ring.obj
 0001:0001ec10       _$E47                      0041fc10 f   AI_ring.obj
 0001:0001ec50       _$E44                      0041fc50 f   AI_ring.obj
 0001:0001ec90       _$E46                      0041fc90 f   AI_ring.obj
 0001:0001ecd0       _$E45                      0041fcd0 f   AI_ring.obj
 0001:0001e430       _$E42                      0041f430 f   AI_renders_in_menu.obj
 0001:0001e470       _$E39                      0041f470 f   AI_renders_in_menu.obj
 0001:0001e4b0       _$E41                      0041f4b0 f   AI_renders_in_menu.obj
 0001:0001e4f0       _$E40                      0041f4f0 f   AI_renders_in_menu.obj
 0001:0001e530       _$E47                      0041f530 f   AI_renders_in_menu.obj
 0001:0001e570       _$E44                      0041f570 f   AI_renders_in_menu.obj
 0001:0001e5b0       _$E46                      0041f5b0 f   AI_renders_in_menu.obj
 0001:0001e5f0       _$E45                      0041f5f0 f   AI_renders_in_menu.obj
 0001:0001bb50       _$E42                      0041cb50 f   AI_renders.obj
 0001:0001bb90       _$E39                      0041cb90 f   AI_renders.obj
 0001:0001bbd0       _$E41                      0041cbd0 f   AI_renders.obj
 0001:0001bc10       _$E40                      0041cc10 f   AI_renders.obj
 0001:0001bc50       _$E47                      0041cc50 f   AI_renders.obj
 0001:0001bc90       _$E44                      0041cc90 f   AI_renders.obj
 0001:0001bcd0       _$E46                      0041ccd0 f   AI_renders.obj
 0001:0001bd10       _$E45                      0041cd10 f   AI_renders.obj
 0001:0001d840       _$E54                      0041e840 f   AI_renders.obj
 0001:0001b700       _$E42                      0041c700 f   AI_objects.obj
 0001:0001b740       _$E39                      0041c740 f   AI_objects.obj
 0001:0001b780       _$E41                      0041c780 f   AI_objects.obj
 0001:0001b7c0       _$E40                      0041c7c0 f   AI_objects.obj
 0001:0001b800       _$E47                      0041c800 f   AI_objects.obj
 0001:0001b840       _$E44                      0041c840 f   AI_objects.obj
 0001:0001b880       _$E46                      0041c880 f   AI_objects.obj
 0001:0001b8c0       _$E45                      0041c8c0 f   AI_objects.obj
 0001:0001a900       _$E42                      0041b900 f   AI_nest.obj
 0001:0001a940       _$E39                      0041b940 f   AI_nest.obj
 0001:0001a980       _$E41                      0041b980 f   AI_nest.obj
 0001:0001a9c0       _$E40                      0041b9c0 f   AI_nest.obj
 0001:0001aa00       _$E47                      0041ba00 f   AI_nest.obj
 0001:0001aa40       _$E44                      0041ba40 f   AI_nest.obj
 0001:0001aa80       _$E46                      0041ba80 f   AI_nest.obj
 0001:0001aac0       _$E45                      0041bac0 f   AI_nest.obj
 0001:0001a220       _$E42                      0041b220 f   AI_graphic_objects.obj
 0001:0001a260       _$E39                      0041b260 f   AI_graphic_objects.obj
 0001:0001a2a0       _$E41                      0041b2a0 f   AI_graphic_objects.obj
 0001:0001a2e0       _$E40                      0041b2e0 f   AI_graphic_objects.obj
 0001:0001a320       _$E47                      0041b320 f   AI_graphic_objects.obj
 0001:0001a360       _$E44                      0041b360 f   AI_graphic_objects.obj
 0001:0001a3a0       _$E46                      0041b3a0 f   AI_graphic_objects.obj
 0001:0001a3e0       _$E45                      0041b3e0 f   AI_graphic_objects.obj
 0001:0001a020       _$E42                      0041b020 f   AI_environment.obj
 0001:0001a060       _$E39                      0041b060 f   AI_environment.obj
 0001:0001a0a0       _$E41                      0041b0a0 f   AI_environment.obj
 0001:0001a0e0       _$E40                      0041b0e0 f   AI_environment.obj
 0001:0001a120       _$E47                      0041b120 f   AI_environment.obj
 0001:0001a160       _$E44                      0041b160 f   AI_environment.obj
 0001:0001a1a0       _$E46                      0041b1a0 f   AI_environment.obj
 0001:0001a1e0       _$E45                      0041b1e0 f   AI_environment.obj
 0001:00019970       _$E42                      0041a970 f   AI_enemies.obj
 0001:000199b0       _$E39                      0041a9b0 f   AI_enemies.obj
 0001:000199f0       _$E41                      0041a9f0 f   AI_enemies.obj
 0001:00019a30       _$E40                      0041aa30 f   AI_enemies.obj
 0001:00019a70       _$E47                      0041aa70 f   AI_enemies.obj
 0001:00019ab0       _$E44                      0041aab0 f   AI_enemies.obj
 0001:00019af0       _$E46                      0041aaf0 f   AI_enemies.obj
 0001:00019b30       _$E45                      0041ab30 f   AI_enemies.obj
 0001:00015490       _$E42                      00416490 f   AI_ants.obj
 0001:000154d0       _$E39                      004164d0 f   AI_ants.obj
 0001:00015510       _$E41                      00416510 f   AI_ants.obj
 0001:00015550       _$E40                      00416550 f   AI_ants.obj
 0001:00015590       _$E47                      00416590 f   AI_ants.obj
 0001:000155d0       _$E44                      004165d0 f   AI_ants.obj
 0001:00015610       _$E46                      00416610 f   AI_ants.obj
 0001:00015650       _$E45                      00416650 f   AI_ants.obj
 0001:00010b60       _$E42                      00411b60 f   CSoundManager.obj
 0001:00010ba0       _$E39                      00411ba0 f   CSoundManager.obj
 0001:00010be0       _$E41                      00411be0 f   CSoundManager.obj
 0001:00010c20       _$E40                      00411c20 f   CSoundManager.obj
 0001:00010c60       _$E47                      00411c60 f   CSoundManager.obj
 0001:00010ca0       _$E44                      00411ca0 f   CSoundManager.obj
 0001:00010ce0       _$E46                      00411ce0 f   CSoundManager.obj
 0001:00010d20       _$E45                      00411d20 f   CSoundManager.obj
 0001:0000eed0       _$E45                      0040fed0 f   C3DObjEditor.obj
 0001:0000ef10       _$E42                      0040ff10 f   C3DObjEditor.obj
 0001:0000ef50       _$E44                      0040ff50 f   C3DObjEditor.obj
 0001:0000ef90       _$E43                      0040ff90 f   C3DObjEditor.obj
 0001:00003af0       _$E45                      00404af0 f   C3DObject.obj
 0001:00003b30       _$E42                      00404b30 f   C3DObject.obj
 0001:00003b70       _$E44                      00404b70 f   C3DObject.obj
 0001:00003bb0       _$E43                      00404bb0 f   C3DObject.obj
 0001:00003bf0       _$E50                      00404bf0 f   C3DObject.obj
 0001:00003c30       _$E47                      00404c30 f   C3DObject.obj
 0001:00003c70       _$E49                      00404c70 f   C3DObject.obj
 0001:00003cb0       _$E48                      00404cb0 f   C3DObject.obj
 0001:00000000       _$E42                      00401000 f   3dsloader.obj
 0001:00000040       _$E39                      00401040 f   3dsloader.obj
 0001:00000080       _$E41                      00401080 f   3dsloader.obj
 0001:000000c0       _$E40                      004010c0 f   3dsloader.obj
 0001:00000100       _$E47                      00401100 f   3dsloader.obj
 0001:00000140       _$E44                      00401140 f   3dsloader.obj
 0001:00000180       _$E46                      00401180 f   3dsloader.obj
 0001:000001c0       _$E45                      004011c0 f   3dsloader.obj
 0001:00035100       _ShowError                 00436100 f   sdlmain:SDL_main.obj
 0001:00035130       _OutOfMemory               00436130 f   sdlmain:SDL_main.obj
 0001:00035150       _cleanup_output            00436150 f   sdlmain:SDL_main.obj
 0001:00035370       _ParseCommandLine          00436370 f   sdlmain:SDL_main.obj
 0001:00034e58       ?ArrayUnwindFilter@@YAHPAU_EXCEPTION_POINTERS@@@Z 00435e58 f   MSVCRT:ehvecdtr.obj
